

Microchip Technology PIC18 LITE Macro Assembler V1.12 build 49521 
                                                                                               Tue Oct 13 11:27:12 2015

HI-TECH Software Omniscient Code Generator (Lite mode) build 49521
     1  0000                     opt subtitle "HI-TECH Software Omniscient Code Generator (Lite mode) build 49521"
     2                           opt subtitle "HI-TECH Software Omniscient Code Generator (Lite mode) build 49521"
     3                           
     4                           opt pagewidth 120
     5                           
     6                           	opt lm
     7                           
     8  0000                     porta	equ	0F80h
     9  0000                     portb	equ	0F81h
    10  0000                     portc	equ	0F82h
    11  0000                     portd	equ	0F83h
    12  0000                     porte	equ	0F84h
    13  0000                     lata	equ	0F89h
    14  0000                     latb	equ	0F8Ah
    15  0000                     latc	equ	0F8Bh
    16  0000                     latd	equ	0F8Ch
    17  0000                     late	equ	0F8Dh
    18  0000                     trisa	equ	0F92h
    19  0000                     trisb	equ	0F93h
    20  0000                     trisc	equ	0F94h
    21  0000                     trisd	equ	0F95h
    22  0000                     trise	equ	0F96h
    23  0000                     pie1	equ	0F9Dh
    24  0000                     pir1	equ	0F9Eh
    25  0000                     ipr1	equ	0F9Fh
    26  0000                     pie2	equ	0FA0h
    27  0000                     pir2	equ	0FA1h
    28  0000                     ipr2	equ	0FA2h
    29  0000                     t3con	equ	0FB1h
    30  0000                     tmr3l	equ	0FB2h
    31  0000                     tmr3h	equ	0FB3h
    32  0000                     ccp1con	equ	0FBDh
    33  0000                     ccpr1l	equ	0FBEh
    34  0000                     ccpr1h	equ	0FBFh
    35  0000                     adcon1	equ	0FC1h
    36  0000                     adcon0	equ	0FC2h
    37  0000                     adresl	equ	0FC3h
    38  0000                     adresh	equ	0FC4h
    39  0000                     sspcon2	equ	0FC5h
    40  0000                     sspcon1	equ	0FC6h
    41  0000                     sspstat	equ	0FC7h
    42  0000                     sspadd	equ	0FC8h
    43  0000                     sspbuf	equ	0FC9h
    44  0000                     t2con	equ	0FCAh
    45  0000                     pr2	equ	0FCBh
    46  0000                     tmr2	equ	0FCCh
    47  0000                     t1con	equ	0FCDh
    48  0000                     tmr1l	equ	0FCEh
    49  0000                     tmr1h	equ	0FCFh
    50  0000                     rcon	equ	0FD0h
    51  0000                     wdtcon	equ	0FD1h
    52  0000                     lvdcon	equ	0FD2h
    53  0000                     osccon	equ	0FD3h
    54  0000                     t0con	equ	0FD5h
    55  0000                     tmr0l	equ	0FD6h
    56  0000                     tmr0h	equ	0FD7h
    57  0000                     status	equ	0FD8h
    58  0000                     fsr2	equ	0FD9h
    59  0000                     fsr2l	equ	0FD9h
    60  0000                     fsr2h	equ	0FDAh
    61  0000                     plusw2	equ	0FDBh
    62  0000                     preinc2	equ	0FDCh
    63  0000                     postdec2	equ	0FDDh
    64  0000                     postinc2	equ	0FDEh
    65  0000                     indf2	equ	0FDFh
    66  0000                     bsr	equ	0FE0h
    67  0000                     fsr1	equ	0FE1h
    68  0000                     fsr1l	equ	0FE1h
    69  0000                     fsr1h	equ	0FE2h
    70  0000                     plusw1	equ	0FE3h
    71  0000                     preinc1	equ	0FE4h
    72  0000                     postdec1	equ	0FE5h
    73  0000                     postinc1	equ	0FE6h
    74  0000                     indf1	equ	0FE7h
    75  0000                     wreg	equ	0FE8h
    76  0000                     fsr0	equ	0FE9h
    77  0000                     fsr0l	equ	0FE9h
    78  0000                     fsr0h	equ	0FEAh
    79  0000                     plusw0	equ	0FEBh
    80  0000                     preinc0	equ	0FECh
    81  0000                     postdec0	equ	0FEDh
    82  0000                     postinc0	equ	0FEEh
    83  0000                     indf0	equ	0FEFh
    84  0000                     intcon3	equ	0FF0h
    85  0000                     intcon2	equ	0FF1h
    86  0000                     intcon	equ	0FF2h
    87  0000                     prod	equ	0FF3h
    88  0000                     prodl	equ	0FF3h
    89  0000                     prodh	equ	0FF4h
    90  0000                     tablat	equ	0FF5h
    91  0000                     tblptr	equ	0FF6h
    92  0000                     tblptrl	equ	0FF6h
    93  0000                     tblptrh	equ	0FF7h
    94  0000                     tblptru	equ	0FF8h
    95  0000                     pcl	equ	0FF9h
    96  0000                     pclat	equ	0FFAh
    97  0000                     pclath	equ	0FFAh
    98  0000                     pclatu	equ	0FFBh
    99  0000                     stkptr	equ	0FFCh
   100  0000                     tosl	equ	0FFDh
   101  0000                     tosh	equ	0FFEh
   102  0000                     tosu	equ	0FFFh
   103                           opt subtitle "HI-TECH Software Omniscient Code Generator (Lite mode) build 49521"
   104                           
   105  0000                     	endm
   106                           opt subtitle "HI-TECH Software Omniscient Code Generator (Lite mode) build 49521"
   107                           
   108                           opt pagewidth 120
   109  0000                     ANSELA equ 0F38h ;# 
   110                           opt subtitle "HI-TECH Software Omniscient Code Generator (Lite mode) build 49521"
   111  0000                     ANSELB equ 0F39h ;# 
   112                           opt subtitle "HI-TECH Software Omniscient Code Generator (Lite mode) build 49521"
   113  0000                     ANSELC equ 0F3Ah ;# 
   114                           opt subtitle "HI-TECH Software Omniscient Code Generator (Lite mode) build 49521"
   115  0000                     PMD2 equ 0F3Dh ;# 
   116                           opt subtitle "HI-TECH Software Omniscient Code Generator (Lite mode) build 49521"
   117  0000                     PMD1 equ 0F3Eh ;# 
   118                           opt subtitle "HI-TECH Software Omniscient Code Generator (Lite mode) build 49521"
   119  0000                     PMD0 equ 0F3Fh ;# 
   120                           opt subtitle "HI-TECH Software Omniscient Code Generator (Lite mode) build 49521"
   121  0000                     VREFCON2 equ 0F40h ;# 
   122                           opt subtitle "HI-TECH Software Omniscient Code Generator (Lite mode) build 49521"
   123  0000                     DACCON1 equ 0F40h ;# 
   124                           opt subtitle "HI-TECH Software Omniscient Code Generator (Lite mode) build 49521"
   125  0000                     VREFCON1 equ 0F41h ;# 
   126                           opt subtitle "HI-TECH Software Omniscient Code Generator (Lite mode) build 49521"
   127  0000                     DACCON0 equ 0F41h ;# 
   128                           opt subtitle "HI-TECH Software Omniscient Code Generator (Lite mode) build 49521"
   129  0000                     VREFCON0 equ 0F42h ;# 
   130                           opt subtitle "HI-TECH Software Omniscient Code Generator (Lite mode) build 49521"
   131  0000                     FVRCON equ 0F42h ;# 
   132                           opt subtitle "HI-TECH Software Omniscient Code Generator (Lite mode) build 49521"
   133  0000                     CTMUICON equ 0F43h ;# 
   134                           opt subtitle "HI-TECH Software Omniscient Code Generator (Lite mode) build 49521"
   135  0000                     CTMUICONH equ 0F43h ;# 
   136                           opt subtitle "HI-TECH Software Omniscient Code Generator (Lite mode) build 49521"
   137  0000                     CTMUCONL equ 0F44h ;# 
   138                           opt subtitle "HI-TECH Software Omniscient Code Generator (Lite mode) build 49521"
   139  0000                     CTMUCON1 equ 0F44h ;# 
   140                           opt subtitle "HI-TECH Software Omniscient Code Generator (Lite mode) build 49521"
   141  0000                     CTMUCONH equ 0F45h ;# 
   142                           opt subtitle "HI-TECH Software Omniscient Code Generator (Lite mode) build 49521"
   143  0000                     CTMUCON0 equ 0F45h ;# 
   144                           opt subtitle "HI-TECH Software Omniscient Code Generator (Lite mode) build 49521"
   145  0000                     SRCON1 equ 0F46h ;# 
   146                           opt subtitle "HI-TECH Software Omniscient Code Generator (Lite mode) build 49521"
   147  0000                     SRCON0 equ 0F47h ;# 
   148                           opt subtitle "HI-TECH Software Omniscient Code Generator (Lite mode) build 49521"
   149  0000                     CCPTMRS1 equ 0F48h ;# 
   150                           opt subtitle "HI-TECH Software Omniscient Code Generator (Lite mode) build 49521"
   151  0000                     CCPTMRS0 equ 0F49h ;# 
   152                           opt subtitle "HI-TECH Software Omniscient Code Generator (Lite mode) build 49521"
   153  0000                     T6CON equ 0F4Ah ;# 
   154                           opt subtitle "HI-TECH Software Omniscient Code Generator (Lite mode) build 49521"
   155  0000                     PR6 equ 0F4Bh ;# 
   156                           opt subtitle "HI-TECH Software Omniscient Code Generator (Lite mode) build 49521"
   157  0000                     TMR6 equ 0F4Ch ;# 
   158                           opt subtitle "HI-TECH Software Omniscient Code Generator (Lite mode) build 49521"
   159  0000                     T5GCON equ 0F4Dh ;# 
   160                           opt subtitle "HI-TECH Software Omniscient Code Generator (Lite mode) build 49521"
   161  0000                     T5CON equ 0F4Eh ;# 
   162                           opt subtitle "HI-TECH Software Omniscient Code Generator (Lite mode) build 49521"
   163  0000                     TMR5 equ 0F4Fh ;# 
   164                           opt subtitle "HI-TECH Software Omniscient Code Generator (Lite mode) build 49521"
   165  0000                     TMR5L equ 0F4Fh ;# 
   166                           opt subtitle "HI-TECH Software Omniscient Code Generator (Lite mode) build 49521"
   167  0000                     TMR5H equ 0F50h ;# 
   168                           opt subtitle "HI-TECH Software Omniscient Code Generator (Lite mode) build 49521"
   169  0000                     T4CON equ 0F51h ;# 
   170                           opt subtitle "HI-TECH Software Omniscient Code Generator (Lite mode) build 49521"
   171  0000                     PR4 equ 0F52h ;# 
   172                           opt subtitle "HI-TECH Software Omniscient Code Generator (Lite mode) build 49521"
   173  0000                     TMR4 equ 0F53h ;# 
   174                           opt subtitle "HI-TECH Software Omniscient Code Generator (Lite mode) build 49521"
   175  0000                     CCP5CON equ 0F54h ;# 
   176                           opt subtitle "HI-TECH Software Omniscient Code Generator (Lite mode) build 49521"
   177  0000                     CCPR5 equ 0F55h ;# 
   178                           opt subtitle "HI-TECH Software Omniscient Code Generator (Lite mode) build 49521"
   179  0000                     CCPR5L equ 0F55h ;# 
   180                           opt subtitle "HI-TECH Software Omniscient Code Generator (Lite mode) build 49521"
   181  0000                     CCPR5H equ 0F56h ;# 
   182                           opt subtitle "HI-TECH Software Omniscient Code Generator (Lite mode) build 49521"
   183  0000                     CCP4CON equ 0F57h ;# 
   184                           opt subtitle "HI-TECH Software Omniscient Code Generator (Lite mode) build 49521"
   185  0000                     CCPR4 equ 0F58h ;# 
   186                           opt subtitle "HI-TECH Software Omniscient Code Generator (Lite mode) build 49521"
   187  0000                     CCPR4L equ 0F58h ;# 
   188                           opt subtitle "HI-TECH Software Omniscient Code Generator (Lite mode) build 49521"
   189  0000                     CCPR4H equ 0F59h ;# 
   190                           opt subtitle "HI-TECH Software Omniscient Code Generator (Lite mode) build 49521"
   191  0000                     PSTR3CON equ 0F5Ah ;# 
   192                           opt subtitle "HI-TECH Software Omniscient Code Generator (Lite mode) build 49521"
   193  0000                     ECCP3AS equ 0F5Bh ;# 
   194                           opt subtitle "HI-TECH Software Omniscient Code Generator (Lite mode) build 49521"
   195  0000                     CCP3AS equ 0F5Bh ;# 
   196                           opt subtitle "HI-TECH Software Omniscient Code Generator (Lite mode) build 49521"
   197  0000                     PWM3CON equ 0F5Ch ;# 
   198                           opt subtitle "HI-TECH Software Omniscient Code Generator (Lite mode) build 49521"
   199  0000                     CCP3CON equ 0F5Dh ;# 
   200                           opt subtitle "HI-TECH Software Omniscient Code Generator (Lite mode) build 49521"
   201  0000                     CCPR3 equ 0F5Eh ;# 
   202                           opt subtitle "HI-TECH Software Omniscient Code Generator (Lite mode) build 49521"
   203  0000                     CCPR3L equ 0F5Eh ;# 
   204                           opt subtitle "HI-TECH Software Omniscient Code Generator (Lite mode) build 49521"
   205  0000                     CCPR3H equ 0F5Fh ;# 
   206                           opt subtitle "HI-TECH Software Omniscient Code Generator (Lite mode) build 49521"
   207  0000                     SLRCON equ 0F60h ;# 
   208                           opt subtitle "HI-TECH Software Omniscient Code Generator (Lite mode) build 49521"
   209  0000                     WPUB equ 0F61h ;# 
   210                           opt subtitle "HI-TECH Software Omniscient Code Generator (Lite mode) build 49521"
   211  0000                     IOCB equ 0F62h ;# 
   212                           opt subtitle "HI-TECH Software Omniscient Code Generator (Lite mode) build 49521"
   213  0000                     PSTR2CON equ 0F63h ;# 
   214                           opt subtitle "HI-TECH Software Omniscient Code Generator (Lite mode) build 49521"
   215  0000                     ECCP2AS equ 0F64h ;# 
   216                           opt subtitle "HI-TECH Software Omniscient Code Generator (Lite mode) build 49521"
   217  0000                     CCP2AS equ 0F64h ;# 
   218                           opt subtitle "HI-TECH Software Omniscient Code Generator (Lite mode) build 49521"
   219  0000                     PWM2CON equ 0F65h ;# 
   220                           opt subtitle "HI-TECH Software Omniscient Code Generator (Lite mode) build 49521"
   221  0000                     CCP2CON equ 0F66h ;# 
   222                           opt subtitle "HI-TECH Software Omniscient Code Generator (Lite mode) build 49521"
   223  0000                     CCPR2 equ 0F67h ;# 
   224                           opt subtitle "HI-TECH Software Omniscient Code Generator (Lite mode) build 49521"
   225  0000                     CCPR2L equ 0F67h ;# 
   226                           opt subtitle "HI-TECH Software Omniscient Code Generator (Lite mode) build 49521"
   227  0000                     CCPR2H equ 0F68h ;# 
   228                           opt subtitle "HI-TECH Software Omniscient Code Generator (Lite mode) build 49521"
   229  0000                     SSP2CON3 equ 0F69h ;# 
   230                           opt subtitle "HI-TECH Software Omniscient Code Generator (Lite mode) build 49521"
   231  0000                     SSP2MSK equ 0F6Ah ;# 
   232                           opt subtitle "HI-TECH Software Omniscient Code Generator (Lite mode) build 49521"
   233  0000                     SSP2CON2 equ 0F6Bh ;# 
   234                           opt subtitle "HI-TECH Software Omniscient Code Generator (Lite mode) build 49521"
   235  0000                     SSP2CON1 equ 0F6Ch ;# 
   236                           opt subtitle "HI-TECH Software Omniscient Code Generator (Lite mode) build 49521"
   237  0000                     SSP2STAT equ 0F6Dh ;# 
   238                           opt subtitle "HI-TECH Software Omniscient Code Generator (Lite mode) build 49521"
   239  0000                     SSP2ADD equ 0F6Eh ;# 
   240                           opt subtitle "HI-TECH Software Omniscient Code Generator (Lite mode) build 49521"
   241  0000                     SSP2BUF equ 0F6Fh ;# 
   242                           opt subtitle "HI-TECH Software Omniscient Code Generator (Lite mode) build 49521"
   243  0000                     BAUDCON2 equ 0F70h ;# 
   244                           opt subtitle "HI-TECH Software Omniscient Code Generator (Lite mode) build 49521"
   245  0000                     BAUD2CON equ 0F70h ;# 
   246                           opt subtitle "HI-TECH Software Omniscient Code Generator (Lite mode) build 49521"
   247  0000                     RCSTA2 equ 0F71h ;# 
   248                           opt subtitle "HI-TECH Software Omniscient Code Generator (Lite mode) build 49521"
   249  0000                     RC2STA equ 0F71h ;# 
   250                           opt subtitle "HI-TECH Software Omniscient Code Generator (Lite mode) build 49521"
   251  0000                     TXSTA2 equ 0F72h ;# 
   252                           opt subtitle "HI-TECH Software Omniscient Code Generator (Lite mode) build 49521"
   253  0000                     TX2STA equ 0F72h ;# 
   254                           opt subtitle "HI-TECH Software Omniscient Code Generator (Lite mode) build 49521"
   255  0000                     TXREG2 equ 0F73h ;# 
   256                           opt subtitle "HI-TECH Software Omniscient Code Generator (Lite mode) build 49521"
   257  0000                     TX2REG equ 0F73h ;# 
   258                           opt subtitle "HI-TECH Software Omniscient Code Generator (Lite mode) build 49521"
   259  0000                     RCREG2 equ 0F74h ;# 
   260                           opt subtitle "HI-TECH Software Omniscient Code Generator (Lite mode) build 49521"
   261  0000                     RC2REG equ 0F74h ;# 
   262                           opt subtitle "HI-TECH Software Omniscient Code Generator (Lite mode) build 49521"
   263  0000                     SPBRG2 equ 0F75h ;# 
   264                           opt subtitle "HI-TECH Software Omniscient Code Generator (Lite mode) build 49521"
   265  0000                     SP2BRG equ 0F75h ;# 
   266                           opt subtitle "HI-TECH Software Omniscient Code Generator (Lite mode) build 49521"
   267  0000                     SPBRGH2 equ 0F76h ;# 
   268                           opt subtitle "HI-TECH Software Omniscient Code Generator (Lite mode) build 49521"
   269  0000                     SP2BRGH equ 0F76h ;# 
   270                           opt subtitle "HI-TECH Software Omniscient Code Generator (Lite mode) build 49521"
   271  0000                     CM2CON1 equ 0F77h ;# 
   272                           opt subtitle "HI-TECH Software Omniscient Code Generator (Lite mode) build 49521"
   273  0000                     CM12CON equ 0F77h ;# 
   274                           opt subtitle "HI-TECH Software Omniscient Code Generator (Lite mode) build 49521"
   275  0000                     CM2CON0 equ 0F78h ;# 
   276                           opt subtitle "HI-TECH Software Omniscient Code Generator (Lite mode) build 49521"
   277  0000                     CM2CON equ 0F78h ;# 
   278                           opt subtitle "HI-TECH Software Omniscient Code Generator (Lite mode) build 49521"
   279  0000                     CM1CON0 equ 0F79h ;# 
   280                           opt subtitle "HI-TECH Software Omniscient Code Generator (Lite mode) build 49521"
   281  0000                     CM1CON equ 0F79h ;# 
   282                           opt subtitle "HI-TECH Software Omniscient Code Generator (Lite mode) build 49521"
   283  0000                     PIE4 equ 0F7Ah ;# 
   284                           opt subtitle "HI-TECH Software Omniscient Code Generator (Lite mode) build 49521"
   285  0000                     PIR4 equ 0F7Bh ;# 
   286                           opt subtitle "HI-TECH Software Omniscient Code Generator (Lite mode) build 49521"
   287  0000                     IPR4 equ 0F7Ch ;# 
   288                           opt subtitle "HI-TECH Software Omniscient Code Generator (Lite mode) build 49521"
   289  0000                     PIE5 equ 0F7Dh ;# 
   290                           opt subtitle "HI-TECH Software Omniscient Code Generator (Lite mode) build 49521"
   291  0000                     PIR5 equ 0F7Eh ;# 
   292                           opt subtitle "HI-TECH Software Omniscient Code Generator (Lite mode) build 49521"
   293  0000                     IPR5 equ 0F7Fh ;# 
   294                           opt subtitle "HI-TECH Software Omniscient Code Generator (Lite mode) build 49521"
   295  0000                     PORTA equ 0F80h ;# 
   296                           opt subtitle "HI-TECH Software Omniscient Code Generator (Lite mode) build 49521"
   297  0000                     PORTB equ 0F81h ;# 
   298                           opt subtitle "HI-TECH Software Omniscient Code Generator (Lite mode) build 49521"
   299  0000                     PORTC equ 0F82h ;# 
   300                           opt subtitle "HI-TECH Software Omniscient Code Generator (Lite mode) build 49521"
   301  0000                     PORTE equ 0F84h ;# 
   302                           opt subtitle "HI-TECH Software Omniscient Code Generator (Lite mode) build 49521"
   303  0000                     LATA equ 0F89h ;# 
   304                           opt subtitle "HI-TECH Software Omniscient Code Generator (Lite mode) build 49521"
   305  0000                     LATB equ 0F8Ah ;# 
   306                           opt subtitle "HI-TECH Software Omniscient Code Generator (Lite mode) build 49521"
   307  0000                     LATC equ 0F8Bh ;# 
   308                           opt subtitle "HI-TECH Software Omniscient Code Generator (Lite mode) build 49521"
   309  0000                     TRISA equ 0F92h ;# 
   310                           opt subtitle "HI-TECH Software Omniscient Code Generator (Lite mode) build 49521"
   311  0000                     DDRA equ 0F92h ;# 
   312                           opt subtitle "HI-TECH Software Omniscient Code Generator (Lite mode) build 49521"
   313  0000                     TRISB equ 0F93h ;# 
   314                           opt subtitle "HI-TECH Software Omniscient Code Generator (Lite mode) build 49521"
   315  0000                     DDRB equ 0F93h ;# 
   316                           opt subtitle "HI-TECH Software Omniscient Code Generator (Lite mode) build 49521"
   317  0000                     TRISC equ 0F94h ;# 
   318                           opt subtitle "HI-TECH Software Omniscient Code Generator (Lite mode) build 49521"
   319  0000                     DDRC equ 0F94h ;# 
   320                           opt subtitle "HI-TECH Software Omniscient Code Generator (Lite mode) build 49521"
   321  0000                     TRISE equ 0F96h ;# 
   322                           opt subtitle "HI-TECH Software Omniscient Code Generator (Lite mode) build 49521"
   323  0000                     OSCTUNE equ 0F9Bh ;# 
   324                           opt subtitle "HI-TECH Software Omniscient Code Generator (Lite mode) build 49521"
   325  0000                     HLVDCON equ 0F9Ch ;# 
   326                           opt subtitle "HI-TECH Software Omniscient Code Generator (Lite mode) build 49521"
   327  0000                     LVDCON equ 0F9Ch ;# 
   328                           opt subtitle "HI-TECH Software Omniscient Code Generator (Lite mode) build 49521"
   329  0000                     PIE1 equ 0F9Dh ;# 
   330                           opt subtitle "HI-TECH Software Omniscient Code Generator (Lite mode) build 49521"
   331  0000                     PIR1 equ 0F9Eh ;# 
   332                           opt subtitle "HI-TECH Software Omniscient Code Generator (Lite mode) build 49521"
   333  0000                     IPR1 equ 0F9Fh ;# 
   334                           opt subtitle "HI-TECH Software Omniscient Code Generator (Lite mode) build 49521"
   335  0000                     PIE2 equ 0FA0h ;# 
   336                           opt subtitle "HI-TECH Software Omniscient Code Generator (Lite mode) build 49521"
   337  0000                     PIR2 equ 0FA1h ;# 
   338                           opt subtitle "HI-TECH Software Omniscient Code Generator (Lite mode) build 49521"
   339  0000                     IPR2 equ 0FA2h ;# 
   340                           opt subtitle "HI-TECH Software Omniscient Code Generator (Lite mode) build 49521"
   341  0000                     PIE3 equ 0FA3h ;# 
   342                           opt subtitle "HI-TECH Software Omniscient Code Generator (Lite mode) build 49521"
   343  0000                     PIR3 equ 0FA4h ;# 
   344                           opt subtitle "HI-TECH Software Omniscient Code Generator (Lite mode) build 49521"
   345  0000                     IPR3 equ 0FA5h ;# 
   346                           opt subtitle "HI-TECH Software Omniscient Code Generator (Lite mode) build 49521"
   347  0000                     EECON1 equ 0FA6h ;# 
   348                           opt subtitle "HI-TECH Software Omniscient Code Generator (Lite mode) build 49521"
   349  0000                     EECON2 equ 0FA7h ;# 
   350                           opt subtitle "HI-TECH Software Omniscient Code Generator (Lite mode) build 49521"
   351  0000                     EEDATA equ 0FA8h ;# 
   352                           opt subtitle "HI-TECH Software Omniscient Code Generator (Lite mode) build 49521"
   353  0000                     EEADR equ 0FA9h ;# 
   354                           opt subtitle "HI-TECH Software Omniscient Code Generator (Lite mode) build 49521"
   355  0000                     EEADRH equ 0FAAh ;# 
   356                           opt subtitle "HI-TECH Software Omniscient Code Generator (Lite mode) build 49521"
   357  0000                     RCSTA1 equ 0FABh ;# 
   358                           opt subtitle "HI-TECH Software Omniscient Code Generator (Lite mode) build 49521"
   359  0000                     RCSTA equ 0FABh ;# 
   360                           opt subtitle "HI-TECH Software Omniscient Code Generator (Lite mode) build 49521"
   361  0000                     RC1STA equ 0FABh ;# 
   362                           opt subtitle "HI-TECH Software Omniscient Code Generator (Lite mode) build 49521"
   363  0000                     TXSTA1 equ 0FACh ;# 
   364                           opt subtitle "HI-TECH Software Omniscient Code Generator (Lite mode) build 49521"
   365  0000                     TXSTA equ 0FACh ;# 
   366                           opt subtitle "HI-TECH Software Omniscient Code Generator (Lite mode) build 49521"
   367  0000                     TX1STA equ 0FACh ;# 
   368                           opt subtitle "HI-TECH Software Omniscient Code Generator (Lite mode) build 49521"
   369  0000                     TXREG1 equ 0FADh ;# 
   370                           opt subtitle "HI-TECH Software Omniscient Code Generator (Lite mode) build 49521"
   371  0000                     TXREG equ 0FADh ;# 
   372                           opt subtitle "HI-TECH Software Omniscient Code Generator (Lite mode) build 49521"
   373  0000                     TX1REG equ 0FADh ;# 
   374                           opt subtitle "HI-TECH Software Omniscient Code Generator (Lite mode) build 49521"
   375  0000                     RCREG1 equ 0FAEh ;# 
   376                           opt subtitle "HI-TECH Software Omniscient Code Generator (Lite mode) build 49521"
   377  0000                     RCREG equ 0FAEh ;# 
   378                           opt subtitle "HI-TECH Software Omniscient Code Generator (Lite mode) build 49521"
   379  0000                     RC1REG equ 0FAEh ;# 
   380                           opt subtitle "HI-TECH Software Omniscient Code Generator (Lite mode) build 49521"
   381  0000                     SPBRG1 equ 0FAFh ;# 
   382                           opt subtitle "HI-TECH Software Omniscient Code Generator (Lite mode) build 49521"
   383  0000                     SPBRG equ 0FAFh ;# 
   384                           opt subtitle "HI-TECH Software Omniscient Code Generator (Lite mode) build 49521"
   385  0000                     SP1BRG equ 0FAFh ;# 
   386                           opt subtitle "HI-TECH Software Omniscient Code Generator (Lite mode) build 49521"
   387  0000                     SPBRGH1 equ 0FB0h ;# 
   388                           opt subtitle "HI-TECH Software Omniscient Code Generator (Lite mode) build 49521"
   389  0000                     SPBRGH equ 0FB0h ;# 
   390                           opt subtitle "HI-TECH Software Omniscient Code Generator (Lite mode) build 49521"
   391  0000                     SP1BRGH equ 0FB0h ;# 
   392                           opt subtitle "HI-TECH Software Omniscient Code Generator (Lite mode) build 49521"
   393  0000                     T3CON equ 0FB1h ;# 
   394                           opt subtitle "HI-TECH Software Omniscient Code Generator (Lite mode) build 49521"
   395  0000                     TMR3 equ 0FB2h ;# 
   396                           opt subtitle "HI-TECH Software Omniscient Code Generator (Lite mode) build 49521"
   397  0000                     TMR3L equ 0FB2h ;# 
   398                           opt subtitle "HI-TECH Software Omniscient Code Generator (Lite mode) build 49521"
   399  0000                     TMR3H equ 0FB3h ;# 
   400                           opt subtitle "HI-TECH Software Omniscient Code Generator (Lite mode) build 49521"
   401  0000                     T3GCON equ 0FB4h ;# 
   402                           opt subtitle "HI-TECH Software Omniscient Code Generator (Lite mode) build 49521"
   403  0000                     ECCP1AS equ 0FB6h ;# 
   404                           opt subtitle "HI-TECH Software Omniscient Code Generator (Lite mode) build 49521"
   405  0000                     ECCPAS equ 0FB6h ;# 
   406                           opt subtitle "HI-TECH Software Omniscient Code Generator (Lite mode) build 49521"
   407  0000                     PWM1CON equ 0FB7h ;# 
   408                           opt subtitle "HI-TECH Software Omniscient Code Generator (Lite mode) build 49521"
   409  0000                     PWMCON equ 0FB7h ;# 
   410                           opt subtitle "HI-TECH Software Omniscient Code Generator (Lite mode) build 49521"
   411  0000                     BAUDCON1 equ 0FB8h ;# 
   412                           opt subtitle "HI-TECH Software Omniscient Code Generator (Lite mode) build 49521"
   413  0000                     BAUDCON equ 0FB8h ;# 
   414                           opt subtitle "HI-TECH Software Omniscient Code Generator (Lite mode) build 49521"
   415  0000                     BAUDCTL equ 0FB8h ;# 
   416                           opt subtitle "HI-TECH Software Omniscient Code Generator (Lite mode) build 49521"
   417  0000                     BAUD1CON equ 0FB8h ;# 
   418                           opt subtitle "HI-TECH Software Omniscient Code Generator (Lite mode) build 49521"
   419  0000                     PSTR1CON equ 0FB9h ;# 
   420                           opt subtitle "HI-TECH Software Omniscient Code Generator (Lite mode) build 49521"
   421  0000                     PSTRCON equ 0FB9h ;# 
   422                           opt subtitle "HI-TECH Software Omniscient Code Generator (Lite mode) build 49521"
   423  0000                     T2CON equ 0FBAh ;# 
   424                           opt subtitle "HI-TECH Software Omniscient Code Generator (Lite mode) build 49521"
   425  0000                     PR2 equ 0FBBh ;# 
   426                           opt subtitle "HI-TECH Software Omniscient Code Generator (Lite mode) build 49521"
   427  0000                     TMR2 equ 0FBCh ;# 
   428                           opt subtitle "HI-TECH Software Omniscient Code Generator (Lite mode) build 49521"
   429  0000                     CCP1CON equ 0FBDh ;# 
   430                           opt subtitle "HI-TECH Software Omniscient Code Generator (Lite mode) build 49521"
   431  0000                     CCPR1 equ 0FBEh ;# 
   432                           opt subtitle "HI-TECH Software Omniscient Code Generator (Lite mode) build 49521"
   433  0000                     CCPR1L equ 0FBEh ;# 
   434                           opt subtitle "HI-TECH Software Omniscient Code Generator (Lite mode) build 49521"
   435  0000                     CCPR1H equ 0FBFh ;# 
   436                           opt subtitle "HI-TECH Software Omniscient Code Generator (Lite mode) build 49521"
   437  0000                     ADCON2 equ 0FC0h ;# 
   438                           opt subtitle "HI-TECH Software Omniscient Code Generator (Lite mode) build 49521"
   439  0000                     ADCON1 equ 0FC1h ;# 
   440                           opt subtitle "HI-TECH Software Omniscient Code Generator (Lite mode) build 49521"
   441  0000                     ADCON0 equ 0FC2h ;# 
   442                           opt subtitle "HI-TECH Software Omniscient Code Generator (Lite mode) build 49521"
   443  0000                     ADRES equ 0FC3h ;# 
   444                           opt subtitle "HI-TECH Software Omniscient Code Generator (Lite mode) build 49521"
   445  0000                     ADRESL equ 0FC3h ;# 
   446                           opt subtitle "HI-TECH Software Omniscient Code Generator (Lite mode) build 49521"
   447  0000                     ADRESH equ 0FC4h ;# 
   448                           opt subtitle "HI-TECH Software Omniscient Code Generator (Lite mode) build 49521"
   449  0000                     SSP1CON2 equ 0FC5h ;# 
   450                           opt subtitle "HI-TECH Software Omniscient Code Generator (Lite mode) build 49521"
   451  0000                     SSPCON2 equ 0FC5h ;# 
   452                           opt subtitle "HI-TECH Software Omniscient Code Generator (Lite mode) build 49521"
   453  0000                     SSP1CON1 equ 0FC6h ;# 
   454                           opt subtitle "HI-TECH Software Omniscient Code Generator (Lite mode) build 49521"
   455  0000                     SSPCON1 equ 0FC6h ;# 
   456                           opt subtitle "HI-TECH Software Omniscient Code Generator (Lite mode) build 49521"
   457  0000                     SSP1STAT equ 0FC7h ;# 
   458                           opt subtitle "HI-TECH Software Omniscient Code Generator (Lite mode) build 49521"
   459  0000                     SSPSTAT equ 0FC7h ;# 
   460                           opt subtitle "HI-TECH Software Omniscient Code Generator (Lite mode) build 49521"
   461  0000                     SSP1ADD equ 0FC8h ;# 
   462                           opt subtitle "HI-TECH Software Omniscient Code Generator (Lite mode) build 49521"
   463  0000                     SSPADD equ 0FC8h ;# 
   464                           opt subtitle "HI-TECH Software Omniscient Code Generator (Lite mode) build 49521"
   465  0000                     SSP1BUF equ 0FC9h ;# 
   466                           opt subtitle "HI-TECH Software Omniscient Code Generator (Lite mode) build 49521"
   467  0000                     SSPBUF equ 0FC9h ;# 
   468                           opt subtitle "HI-TECH Software Omniscient Code Generator (Lite mode) build 49521"
   469  0000                     SSP1MSK equ 0FCAh ;# 
   470                           opt subtitle "HI-TECH Software Omniscient Code Generator (Lite mode) build 49521"
   471  0000                     SSPMSK equ 0FCAh ;# 
   472                           opt subtitle "HI-TECH Software Omniscient Code Generator (Lite mode) build 49521"
   473  0000                     SSP1CON3 equ 0FCBh ;# 
   474                           opt subtitle "HI-TECH Software Omniscient Code Generator (Lite mode) build 49521"
   475  0000                     SSPCON3 equ 0FCBh ;# 
   476                           opt subtitle "HI-TECH Software Omniscient Code Generator (Lite mode) build 49521"
   477  0000                     T1GCON equ 0FCCh ;# 
   478                           opt subtitle "HI-TECH Software Omniscient Code Generator (Lite mode) build 49521"
   479  0000                     T1CON equ 0FCDh ;# 
   480                           opt subtitle "HI-TECH Software Omniscient Code Generator (Lite mode) build 49521"
   481  0000                     TMR1 equ 0FCEh ;# 
   482                           opt subtitle "HI-TECH Software Omniscient Code Generator (Lite mode) build 49521"
   483  0000                     TMR1L equ 0FCEh ;# 
   484                           opt subtitle "HI-TECH Software Omniscient Code Generator (Lite mode) build 49521"
   485  0000                     TMR1H equ 0FCFh ;# 
   486                           opt subtitle "HI-TECH Software Omniscient Code Generator (Lite mode) build 49521"
   487  0000                     RCON equ 0FD0h ;# 
   488                           opt subtitle "HI-TECH Software Omniscient Code Generator (Lite mode) build 49521"
   489  0000                     WDTCON equ 0FD1h ;# 
   490                           opt subtitle "HI-TECH Software Omniscient Code Generator (Lite mode) build 49521"
   491  0000                     OSCCON2 equ 0FD2h ;# 
   492                           opt subtitle "HI-TECH Software Omniscient Code Generator (Lite mode) build 49521"
   493  0000                     OSCCON equ 0FD3h ;# 
   494                           opt subtitle "HI-TECH Software Omniscient Code Generator (Lite mode) build 49521"
   495  0000                     T0CON equ 0FD5h ;# 
   496                           opt subtitle "HI-TECH Software Omniscient Code Generator (Lite mode) build 49521"
   497  0000                     TMR0 equ 0FD6h ;# 
   498                           opt subtitle "HI-TECH Software Omniscient Code Generator (Lite mode) build 49521"
   499  0000                     TMR0L equ 0FD6h ;# 
   500                           opt subtitle "HI-TECH Software Omniscient Code Generator (Lite mode) build 49521"
   501  0000                     TMR0H equ 0FD7h ;# 
   502                           opt subtitle "HI-TECH Software Omniscient Code Generator (Lite mode) build 49521"
   503  0000                     STATUS equ 0FD8h ;# 
   504                           opt subtitle "HI-TECH Software Omniscient Code Generator (Lite mode) build 49521"
   505  0000                     FSR2 equ 0FD9h ;# 
   506                           opt subtitle "HI-TECH Software Omniscient Code Generator (Lite mode) build 49521"
   507  0000                     FSR2L equ 0FD9h ;# 
   508                           opt subtitle "HI-TECH Software Omniscient Code Generator (Lite mode) build 49521"
   509  0000                     FSR2H equ 0FDAh ;# 
   510                           opt subtitle "HI-TECH Software Omniscient Code Generator (Lite mode) build 49521"
   511  0000                     PLUSW2 equ 0FDBh ;# 
   512                           opt subtitle "HI-TECH Software Omniscient Code Generator (Lite mode) build 49521"
   513  0000                     PREINC2 equ 0FDCh ;# 
   514                           opt subtitle "HI-TECH Software Omniscient Code Generator (Lite mode) build 49521"
   515  0000                     POSTDEC2 equ 0FDDh ;# 
   516                           opt subtitle "HI-TECH Software Omniscient Code Generator (Lite mode) build 49521"
   517  0000                     POSTINC2 equ 0FDEh ;# 
   518                           opt subtitle "HI-TECH Software Omniscient Code Generator (Lite mode) build 49521"
   519  0000                     INDF2 equ 0FDFh ;# 
   520                           opt subtitle "HI-TECH Software Omniscient Code Generator (Lite mode) build 49521"
   521  0000                     BSR equ 0FE0h ;# 
   522                           opt subtitle "HI-TECH Software Omniscient Code Generator (Lite mode) build 49521"
   523  0000                     FSR1 equ 0FE1h ;# 
   524                           opt subtitle "HI-TECH Software Omniscient Code Generator (Lite mode) build 49521"
   525  0000                     FSR1L equ 0FE1h ;# 
   526                           opt subtitle "HI-TECH Software Omniscient Code Generator (Lite mode) build 49521"
   527  0000                     FSR1H equ 0FE2h ;# 
   528                           opt subtitle "HI-TECH Software Omniscient Code Generator (Lite mode) build 49521"
   529  0000                     PLUSW1 equ 0FE3h ;# 
   530                           opt subtitle "HI-TECH Software Omniscient Code Generator (Lite mode) build 49521"
   531  0000                     PREINC1 equ 0FE4h ;# 
   532                           opt subtitle "HI-TECH Software Omniscient Code Generator (Lite mode) build 49521"
   533  0000                     POSTDEC1 equ 0FE5h ;# 
   534                           opt subtitle "HI-TECH Software Omniscient Code Generator (Lite mode) build 49521"
   535  0000                     POSTINC1 equ 0FE6h ;# 
   536                           opt subtitle "HI-TECH Software Omniscient Code Generator (Lite mode) build 49521"
   537  0000                     INDF1 equ 0FE7h ;# 
   538                           opt subtitle "HI-TECH Software Omniscient Code Generator (Lite mode) build 49521"
   539  0000                     WREG equ 0FE8h ;# 
   540                           opt subtitle "HI-TECH Software Omniscient Code Generator (Lite mode) build 49521"
   541  0000                     FSR0 equ 0FE9h ;# 
   542                           opt subtitle "HI-TECH Software Omniscient Code Generator (Lite mode) build 49521"
   543  0000                     FSR0L equ 0FE9h ;# 
   544                           opt subtitle "HI-TECH Software Omniscient Code Generator (Lite mode) build 49521"
   545  0000                     FSR0H equ 0FEAh ;# 
   546                           opt subtitle "HI-TECH Software Omniscient Code Generator (Lite mode) build 49521"
   547  0000                     PLUSW0 equ 0FEBh ;# 
   548                           opt subtitle "HI-TECH Software Omniscient Code Generator (Lite mode) build 49521"
   549  0000                     PREINC0 equ 0FECh ;# 
   550                           opt subtitle "HI-TECH Software Omniscient Code Generator (Lite mode) build 49521"
   551  0000                     POSTDEC0 equ 0FEDh ;# 
   552                           opt subtitle "HI-TECH Software Omniscient Code Generator (Lite mode) build 49521"
   553  0000                     POSTINC0 equ 0FEEh ;# 
   554                           opt subtitle "HI-TECH Software Omniscient Code Generator (Lite mode) build 49521"
   555  0000                     INDF0 equ 0FEFh ;# 
   556                           opt subtitle "HI-TECH Software Omniscient Code Generator (Lite mode) build 49521"
   557  0000                     INTCON3 equ 0FF0h ;# 
   558                           opt subtitle "HI-TECH Software Omniscient Code Generator (Lite mode) build 49521"
   559  0000                     INTCON2 equ 0FF1h ;# 
   560                           opt subtitle "HI-TECH Software Omniscient Code Generator (Lite mode) build 49521"
   561  0000                     INTCON equ 0FF2h ;# 
   562                           opt subtitle "HI-TECH Software Omniscient Code Generator (Lite mode) build 49521"
   563  0000                     PROD equ 0FF3h ;# 
   564                           opt subtitle "HI-TECH Software Omniscient Code Generator (Lite mode) build 49521"
   565  0000                     PRODL equ 0FF3h ;# 
   566                           opt subtitle "HI-TECH Software Omniscient Code Generator (Lite mode) build 49521"
   567  0000                     PRODH equ 0FF4h ;# 
   568                           opt subtitle "HI-TECH Software Omniscient Code Generator (Lite mode) build 49521"
   569  0000                     TABLAT equ 0FF5h ;# 
   570                           opt subtitle "HI-TECH Software Omniscient Code Generator (Lite mode) build 49521"
   571  0000                     TBLPTR equ 0FF6h ;# 
   572                           opt subtitle "HI-TECH Software Omniscient Code Generator (Lite mode) build 49521"
   573  0000                     TBLPTRL equ 0FF6h ;# 
   574                           opt subtitle "HI-TECH Software Omniscient Code Generator (Lite mode) build 49521"
   575  0000                     TBLPTRH equ 0FF7h ;# 
   576                           opt subtitle "HI-TECH Software Omniscient Code Generator (Lite mode) build 49521"
   577  0000                     TBLPTRU equ 0FF8h ;# 
   578                           opt subtitle "HI-TECH Software Omniscient Code Generator (Lite mode) build 49521"
   579  0000                     PCLAT equ 0FF9h ;# 
   580                           opt subtitle "HI-TECH Software Omniscient Code Generator (Lite mode) build 49521"
   581  0000                     PC equ 0FF9h ;# 
   582                           opt subtitle "HI-TECH Software Omniscient Code Generator (Lite mode) build 49521"
   583  0000                     PCL equ 0FF9h ;# 
   584                           opt subtitle "HI-TECH Software Omniscient Code Generator (Lite mode) build 49521"
   585  0000                     PCLATH equ 0FFAh ;# 
   586                           opt subtitle "HI-TECH Software Omniscient Code Generator (Lite mode) build 49521"
   587  0000                     PCLATU equ 0FFBh ;# 
   588                           opt subtitle "HI-TECH Software Omniscient Code Generator (Lite mode) build 49521"
   589  0000                     STKPTR equ 0FFCh ;# 
   590                           opt subtitle "HI-TECH Software Omniscient Code Generator (Lite mode) build 49521"
   591  0000                     TOS equ 0FFDh ;# 
   592                           opt subtitle "HI-TECH Software Omniscient Code Generator (Lite mode) build 49521"
   593  0000                     TOSL equ 0FFDh ;# 
   594                           opt subtitle "HI-TECH Software Omniscient Code Generator (Lite mode) build 49521"
   595  0000                     TOSH equ 0FFEh ;# 
   596                           opt subtitle "HI-TECH Software Omniscient Code Generator (Lite mode) build 49521"
   597  0000                     TOSU equ 0FFFh ;# 
   598                           opt subtitle "HI-TECH Software Omniscient Code Generator (Lite mode) build 49521"
   599  0000                     ANSELA equ 0F38h ;# 
   600                           opt subtitle "HI-TECH Software Omniscient Code Generator (Lite mode) build 49521"
   601  0000                     ANSELB equ 0F39h ;# 
   602                           opt subtitle "HI-TECH Software Omniscient Code Generator (Lite mode) build 49521"
   603  0000                     ANSELC equ 0F3Ah ;# 
   604                           opt subtitle "HI-TECH Software Omniscient Code Generator (Lite mode) build 49521"
   605  0000                     PMD2 equ 0F3Dh ;# 
   606                           opt subtitle "HI-TECH Software Omniscient Code Generator (Lite mode) build 49521"
   607  0000                     PMD1 equ 0F3Eh ;# 
   608                           opt subtitle "HI-TECH Software Omniscient Code Generator (Lite mode) build 49521"
   609  0000                     PMD0 equ 0F3Fh ;# 
   610                           opt subtitle "HI-TECH Software Omniscient Code Generator (Lite mode) build 49521"
   611  0000                     VREFCON2 equ 0F40h ;# 
   612                           opt subtitle "HI-TECH Software Omniscient Code Generator (Lite mode) build 49521"
   613  0000                     DACCON1 equ 0F40h ;# 
   614                           opt subtitle "HI-TECH Software Omniscient Code Generator (Lite mode) build 49521"
   615  0000                     VREFCON1 equ 0F41h ;# 
   616                           opt subtitle "HI-TECH Software Omniscient Code Generator (Lite mode) build 49521"
   617  0000                     DACCON0 equ 0F41h ;# 
   618                           opt subtitle "HI-TECH Software Omniscient Code Generator (Lite mode) build 49521"
   619  0000                     VREFCON0 equ 0F42h ;# 
   620                           opt subtitle "HI-TECH Software Omniscient Code Generator (Lite mode) build 49521"
   621  0000                     FVRCON equ 0F42h ;# 
   622                           opt subtitle "HI-TECH Software Omniscient Code Generator (Lite mode) build 49521"
   623  0000                     CTMUICON equ 0F43h ;# 
   624                           opt subtitle "HI-TECH Software Omniscient Code Generator (Lite mode) build 49521"
   625  0000                     CTMUICONH equ 0F43h ;# 
   626                           opt subtitle "HI-TECH Software Omniscient Code Generator (Lite mode) build 49521"
   627  0000                     CTMUCONL equ 0F44h ;# 
   628                           opt subtitle "HI-TECH Software Omniscient Code Generator (Lite mode) build 49521"
   629  0000                     CTMUCON1 equ 0F44h ;# 
   630                           opt subtitle "HI-TECH Software Omniscient Code Generator (Lite mode) build 49521"
   631  0000                     CTMUCONH equ 0F45h ;# 
   632                           opt subtitle "HI-TECH Software Omniscient Code Generator (Lite mode) build 49521"
   633  0000                     CTMUCON0 equ 0F45h ;# 
   634                           opt subtitle "HI-TECH Software Omniscient Code Generator (Lite mode) build 49521"
   635  0000                     SRCON1 equ 0F46h ;# 
   636                           opt subtitle "HI-TECH Software Omniscient Code Generator (Lite mode) build 49521"
   637  0000                     SRCON0 equ 0F47h ;# 
   638                           opt subtitle "HI-TECH Software Omniscient Code Generator (Lite mode) build 49521"
   639  0000                     CCPTMRS1 equ 0F48h ;# 
   640                           opt subtitle "HI-TECH Software Omniscient Code Generator (Lite mode) build 49521"
   641  0000                     CCPTMRS0 equ 0F49h ;# 
   642                           opt subtitle "HI-TECH Software Omniscient Code Generator (Lite mode) build 49521"
   643  0000                     T6CON equ 0F4Ah ;# 
   644                           opt subtitle "HI-TECH Software Omniscient Code Generator (Lite mode) build 49521"
   645  0000                     PR6 equ 0F4Bh ;# 
   646                           opt subtitle "HI-TECH Software Omniscient Code Generator (Lite mode) build 49521"
   647  0000                     TMR6 equ 0F4Ch ;# 
   648                           opt subtitle "HI-TECH Software Omniscient Code Generator (Lite mode) build 49521"
   649  0000                     T5GCON equ 0F4Dh ;# 
   650                           opt subtitle "HI-TECH Software Omniscient Code Generator (Lite mode) build 49521"
   651  0000                     T5CON equ 0F4Eh ;# 
   652                           opt subtitle "HI-TECH Software Omniscient Code Generator (Lite mode) build 49521"
   653  0000                     TMR5 equ 0F4Fh ;# 
   654                           opt subtitle "HI-TECH Software Omniscient Code Generator (Lite mode) build 49521"
   655  0000                     TMR5L equ 0F4Fh ;# 
   656                           opt subtitle "HI-TECH Software Omniscient Code Generator (Lite mode) build 49521"
   657  0000                     TMR5H equ 0F50h ;# 
   658                           opt subtitle "HI-TECH Software Omniscient Code Generator (Lite mode) build 49521"
   659  0000                     T4CON equ 0F51h ;# 
   660                           opt subtitle "HI-TECH Software Omniscient Code Generator (Lite mode) build 49521"
   661  0000                     PR4 equ 0F52h ;# 
   662                           opt subtitle "HI-TECH Software Omniscient Code Generator (Lite mode) build 49521"
   663  0000                     TMR4 equ 0F53h ;# 
   664                           opt subtitle "HI-TECH Software Omniscient Code Generator (Lite mode) build 49521"
   665  0000                     CCP5CON equ 0F54h ;# 
   666                           opt subtitle "HI-TECH Software Omniscient Code Generator (Lite mode) build 49521"
   667  0000                     CCPR5 equ 0F55h ;# 
   668                           opt subtitle "HI-TECH Software Omniscient Code Generator (Lite mode) build 49521"
   669  0000                     CCPR5L equ 0F55h ;# 
   670                           opt subtitle "HI-TECH Software Omniscient Code Generator (Lite mode) build 49521"
   671  0000                     CCPR5H equ 0F56h ;# 
   672                           opt subtitle "HI-TECH Software Omniscient Code Generator (Lite mode) build 49521"
   673  0000                     CCP4CON equ 0F57h ;# 
   674                           opt subtitle "HI-TECH Software Omniscient Code Generator (Lite mode) build 49521"
   675  0000                     CCPR4 equ 0F58h ;# 
   676                           opt subtitle "HI-TECH Software Omniscient Code Generator (Lite mode) build 49521"
   677  0000                     CCPR4L equ 0F58h ;# 
   678                           opt subtitle "HI-TECH Software Omniscient Code Generator (Lite mode) build 49521"
   679  0000                     CCPR4H equ 0F59h ;# 
   680                           opt subtitle "HI-TECH Software Omniscient Code Generator (Lite mode) build 49521"
   681  0000                     PSTR3CON equ 0F5Ah ;# 
   682                           opt subtitle "HI-TECH Software Omniscient Code Generator (Lite mode) build 49521"
   683  0000                     ECCP3AS equ 0F5Bh ;# 
   684                           opt subtitle "HI-TECH Software Omniscient Code Generator (Lite mode) build 49521"
   685  0000                     CCP3AS equ 0F5Bh ;# 
   686                           opt subtitle "HI-TECH Software Omniscient Code Generator (Lite mode) build 49521"
   687  0000                     PWM3CON equ 0F5Ch ;# 
   688                           opt subtitle "HI-TECH Software Omniscient Code Generator (Lite mode) build 49521"
   689  0000                     CCP3CON equ 0F5Dh ;# 
   690                           opt subtitle "HI-TECH Software Omniscient Code Generator (Lite mode) build 49521"
   691  0000                     CCPR3 equ 0F5Eh ;# 
   692                           opt subtitle "HI-TECH Software Omniscient Code Generator (Lite mode) build 49521"
   693  0000                     CCPR3L equ 0F5Eh ;# 
   694                           opt subtitle "HI-TECH Software Omniscient Code Generator (Lite mode) build 49521"
   695  0000                     CCPR3H equ 0F5Fh ;# 
   696                           opt subtitle "HI-TECH Software Omniscient Code Generator (Lite mode) build 49521"
   697  0000                     SLRCON equ 0F60h ;# 
   698                           opt subtitle "HI-TECH Software Omniscient Code Generator (Lite mode) build 49521"
   699  0000                     WPUB equ 0F61h ;# 
   700                           opt subtitle "HI-TECH Software Omniscient Code Generator (Lite mode) build 49521"
   701  0000                     IOCB equ 0F62h ;# 
   702                           opt subtitle "HI-TECH Software Omniscient Code Generator (Lite mode) build 49521"
   703  0000                     PSTR2CON equ 0F63h ;# 
   704                           opt subtitle "HI-TECH Software Omniscient Code Generator (Lite mode) build 49521"
   705  0000                     ECCP2AS equ 0F64h ;# 
   706                           opt subtitle "HI-TECH Software Omniscient Code Generator (Lite mode) build 49521"
   707  0000                     CCP2AS equ 0F64h ;# 
   708                           opt subtitle "HI-TECH Software Omniscient Code Generator (Lite mode) build 49521"
   709  0000                     PWM2CON equ 0F65h ;# 
   710                           opt subtitle "HI-TECH Software Omniscient Code Generator (Lite mode) build 49521"
   711  0000                     CCP2CON equ 0F66h ;# 
   712                           opt subtitle "HI-TECH Software Omniscient Code Generator (Lite mode) build 49521"
   713  0000                     CCPR2 equ 0F67h ;# 
   714                           opt subtitle "HI-TECH Software Omniscient Code Generator (Lite mode) build 49521"
   715  0000                     CCPR2L equ 0F67h ;# 
   716                           opt subtitle "HI-TECH Software Omniscient Code Generator (Lite mode) build 49521"
   717  0000                     CCPR2H equ 0F68h ;# 
   718                           opt subtitle "HI-TECH Software Omniscient Code Generator (Lite mode) build 49521"
   719  0000                     SSP2CON3 equ 0F69h ;# 
   720                           opt subtitle "HI-TECH Software Omniscient Code Generator (Lite mode) build 49521"
   721  0000                     SSP2MSK equ 0F6Ah ;# 
   722                           opt subtitle "HI-TECH Software Omniscient Code Generator (Lite mode) build 49521"
   723  0000                     SSP2CON2 equ 0F6Bh ;# 
   724                           opt subtitle "HI-TECH Software Omniscient Code Generator (Lite mode) build 49521"
   725  0000                     SSP2CON1 equ 0F6Ch ;# 
   726                           opt subtitle "HI-TECH Software Omniscient Code Generator (Lite mode) build 49521"
   727  0000                     SSP2STAT equ 0F6Dh ;# 
   728                           opt subtitle "HI-TECH Software Omniscient Code Generator (Lite mode) build 49521"
   729  0000                     SSP2ADD equ 0F6Eh ;# 
   730                           opt subtitle "HI-TECH Software Omniscient Code Generator (Lite mode) build 49521"
   731  0000                     SSP2BUF equ 0F6Fh ;# 
   732                           opt subtitle "HI-TECH Software Omniscient Code Generator (Lite mode) build 49521"
   733  0000                     BAUDCON2 equ 0F70h ;# 
   734                           opt subtitle "HI-TECH Software Omniscient Code Generator (Lite mode) build 49521"
   735  0000                     BAUD2CON equ 0F70h ;# 
   736                           opt subtitle "HI-TECH Software Omniscient Code Generator (Lite mode) build 49521"
   737  0000                     RCSTA2 equ 0F71h ;# 
   738                           opt subtitle "HI-TECH Software Omniscient Code Generator (Lite mode) build 49521"
   739  0000                     RC2STA equ 0F71h ;# 
   740                           opt subtitle "HI-TECH Software Omniscient Code Generator (Lite mode) build 49521"
   741  0000                     TXSTA2 equ 0F72h ;# 
   742                           opt subtitle "HI-TECH Software Omniscient Code Generator (Lite mode) build 49521"
   743  0000                     TX2STA equ 0F72h ;# 
   744                           opt subtitle "HI-TECH Software Omniscient Code Generator (Lite mode) build 49521"
   745  0000                     TXREG2 equ 0F73h ;# 
   746                           opt subtitle "HI-TECH Software Omniscient Code Generator (Lite mode) build 49521"
   747  0000                     TX2REG equ 0F73h ;# 
   748                           opt subtitle "HI-TECH Software Omniscient Code Generator (Lite mode) build 49521"
   749  0000                     RCREG2 equ 0F74h ;# 
   750                           opt subtitle "HI-TECH Software Omniscient Code Generator (Lite mode) build 49521"
   751  0000                     RC2REG equ 0F74h ;# 
   752                           opt subtitle "HI-TECH Software Omniscient Code Generator (Lite mode) build 49521"
   753  0000                     SPBRG2 equ 0F75h ;# 
   754                           opt subtitle "HI-TECH Software Omniscient Code Generator (Lite mode) build 49521"
   755  0000                     SP2BRG equ 0F75h ;# 
   756                           opt subtitle "HI-TECH Software Omniscient Code Generator (Lite mode) build 49521"
   757  0000                     SPBRGH2 equ 0F76h ;# 
   758                           opt subtitle "HI-TECH Software Omniscient Code Generator (Lite mode) build 49521"
   759  0000                     SP2BRGH equ 0F76h ;# 
   760                           opt subtitle "HI-TECH Software Omniscient Code Generator (Lite mode) build 49521"
   761  0000                     CM2CON1 equ 0F77h ;# 
   762                           opt subtitle "HI-TECH Software Omniscient Code Generator (Lite mode) build 49521"
   763  0000                     CM12CON equ 0F77h ;# 
   764                           opt subtitle "HI-TECH Software Omniscient Code Generator (Lite mode) build 49521"
   765  0000                     CM2CON0 equ 0F78h ;# 
   766                           opt subtitle "HI-TECH Software Omniscient Code Generator (Lite mode) build 49521"
   767  0000                     CM2CON equ 0F78h ;# 
   768                           opt subtitle "HI-TECH Software Omniscient Code Generator (Lite mode) build 49521"
   769  0000                     CM1CON0 equ 0F79h ;# 
   770                           opt subtitle "HI-TECH Software Omniscient Code Generator (Lite mode) build 49521"
   771  0000                     CM1CON equ 0F79h ;# 
   772                           opt subtitle "HI-TECH Software Omniscient Code Generator (Lite mode) build 49521"
   773  0000                     PIE4 equ 0F7Ah ;# 
   774                           opt subtitle "HI-TECH Software Omniscient Code Generator (Lite mode) build 49521"
   775  0000                     PIR4 equ 0F7Bh ;# 
   776                           opt subtitle "HI-TECH Software Omniscient Code Generator (Lite mode) build 49521"
   777  0000                     IPR4 equ 0F7Ch ;# 
   778                           opt subtitle "HI-TECH Software Omniscient Code Generator (Lite mode) build 49521"
   779  0000                     PIE5 equ 0F7Dh ;# 
   780                           opt subtitle "HI-TECH Software Omniscient Code Generator (Lite mode) build 49521"
   781  0000                     PIR5 equ 0F7Eh ;# 
   782                           opt subtitle "HI-TECH Software Omniscient Code Generator (Lite mode) build 49521"
   783  0000                     IPR5 equ 0F7Fh ;# 
   784                           opt subtitle "HI-TECH Software Omniscient Code Generator (Lite mode) build 49521"
   785  0000                     PORTA equ 0F80h ;# 
   786                           opt subtitle "HI-TECH Software Omniscient Code Generator (Lite mode) build 49521"
   787  0000                     PORTB equ 0F81h ;# 
   788                           opt subtitle "HI-TECH Software Omniscient Code Generator (Lite mode) build 49521"
   789  0000                     PORTC equ 0F82h ;# 
   790                           opt subtitle "HI-TECH Software Omniscient Code Generator (Lite mode) build 49521"
   791  0000                     PORTE equ 0F84h ;# 
   792                           opt subtitle "HI-TECH Software Omniscient Code Generator (Lite mode) build 49521"
   793  0000                     LATA equ 0F89h ;# 
   794                           opt subtitle "HI-TECH Software Omniscient Code Generator (Lite mode) build 49521"
   795  0000                     LATB equ 0F8Ah ;# 
   796                           opt subtitle "HI-TECH Software Omniscient Code Generator (Lite mode) build 49521"
   797  0000                     LATC equ 0F8Bh ;# 
   798                           opt subtitle "HI-TECH Software Omniscient Code Generator (Lite mode) build 49521"
   799  0000                     TRISA equ 0F92h ;# 
   800                           opt subtitle "HI-TECH Software Omniscient Code Generator (Lite mode) build 49521"
   801  0000                     DDRA equ 0F92h ;# 
   802                           opt subtitle "HI-TECH Software Omniscient Code Generator (Lite mode) build 49521"
   803  0000                     TRISB equ 0F93h ;# 
   804                           opt subtitle "HI-TECH Software Omniscient Code Generator (Lite mode) build 49521"
   805  0000                     DDRB equ 0F93h ;# 
   806                           opt subtitle "HI-TECH Software Omniscient Code Generator (Lite mode) build 49521"
   807  0000                     TRISC equ 0F94h ;# 
   808                           opt subtitle "HI-TECH Software Omniscient Code Generator (Lite mode) build 49521"
   809  0000                     DDRC equ 0F94h ;# 
   810                           opt subtitle "HI-TECH Software Omniscient Code Generator (Lite mode) build 49521"
   811  0000                     TRISE equ 0F96h ;# 
   812                           opt subtitle "HI-TECH Software Omniscient Code Generator (Lite mode) build 49521"
   813  0000                     OSCTUNE equ 0F9Bh ;# 
   814                           opt subtitle "HI-TECH Software Omniscient Code Generator (Lite mode) build 49521"
   815  0000                     HLVDCON equ 0F9Ch ;# 
   816                           opt subtitle "HI-TECH Software Omniscient Code Generator (Lite mode) build 49521"
   817  0000                     LVDCON equ 0F9Ch ;# 
   818                           opt subtitle "HI-TECH Software Omniscient Code Generator (Lite mode) build 49521"
   819  0000                     PIE1 equ 0F9Dh ;# 
   820                           opt subtitle "HI-TECH Software Omniscient Code Generator (Lite mode) build 49521"
   821  0000                     PIR1 equ 0F9Eh ;# 
   822                           opt subtitle "HI-TECH Software Omniscient Code Generator (Lite mode) build 49521"
   823  0000                     IPR1 equ 0F9Fh ;# 
   824                           opt subtitle "HI-TECH Software Omniscient Code Generator (Lite mode) build 49521"
   825  0000                     PIE2 equ 0FA0h ;# 
   826                           opt subtitle "HI-TECH Software Omniscient Code Generator (Lite mode) build 49521"
   827  0000                     PIR2 equ 0FA1h ;# 
   828                           opt subtitle "HI-TECH Software Omniscient Code Generator (Lite mode) build 49521"
   829  0000                     IPR2 equ 0FA2h ;# 
   830                           opt subtitle "HI-TECH Software Omniscient Code Generator (Lite mode) build 49521"
   831  0000                     PIE3 equ 0FA3h ;# 
   832                           opt subtitle "HI-TECH Software Omniscient Code Generator (Lite mode) build 49521"
   833  0000                     PIR3 equ 0FA4h ;# 
   834                           opt subtitle "HI-TECH Software Omniscient Code Generator (Lite mode) build 49521"
   835  0000                     IPR3 equ 0FA5h ;# 
   836                           opt subtitle "HI-TECH Software Omniscient Code Generator (Lite mode) build 49521"
   837  0000                     EECON1 equ 0FA6h ;# 
   838                           opt subtitle "HI-TECH Software Omniscient Code Generator (Lite mode) build 49521"
   839  0000                     EECON2 equ 0FA7h ;# 
   840                           opt subtitle "HI-TECH Software Omniscient Code Generator (Lite mode) build 49521"
   841  0000                     EEDATA equ 0FA8h ;# 
   842                           opt subtitle "HI-TECH Software Omniscient Code Generator (Lite mode) build 49521"
   843  0000                     EEADR equ 0FA9h ;# 
   844                           opt subtitle "HI-TECH Software Omniscient Code Generator (Lite mode) build 49521"
   845  0000                     EEADRH equ 0FAAh ;# 
   846                           opt subtitle "HI-TECH Software Omniscient Code Generator (Lite mode) build 49521"
   847  0000                     RCSTA1 equ 0FABh ;# 
   848                           opt subtitle "HI-TECH Software Omniscient Code Generator (Lite mode) build 49521"
   849  0000                     RCSTA equ 0FABh ;# 
   850                           opt subtitle "HI-TECH Software Omniscient Code Generator (Lite mode) build 49521"
   851  0000                     RC1STA equ 0FABh ;# 
   852                           opt subtitle "HI-TECH Software Omniscient Code Generator (Lite mode) build 49521"
   853  0000                     TXSTA1 equ 0FACh ;# 
   854                           opt subtitle "HI-TECH Software Omniscient Code Generator (Lite mode) build 49521"
   855  0000                     TXSTA equ 0FACh ;# 
   856                           opt subtitle "HI-TECH Software Omniscient Code Generator (Lite mode) build 49521"
   857  0000                     TX1STA equ 0FACh ;# 
   858                           opt subtitle "HI-TECH Software Omniscient Code Generator (Lite mode) build 49521"
   859  0000                     TXREG1 equ 0FADh ;# 
   860                           opt subtitle "HI-TECH Software Omniscient Code Generator (Lite mode) build 49521"
   861  0000                     TXREG equ 0FADh ;# 
   862                           opt subtitle "HI-TECH Software Omniscient Code Generator (Lite mode) build 49521"
   863  0000                     TX1REG equ 0FADh ;# 
   864                           opt subtitle "HI-TECH Software Omniscient Code Generator (Lite mode) build 49521"
   865  0000                     RCREG1 equ 0FAEh ;# 
   866                           opt subtitle "HI-TECH Software Omniscient Code Generator (Lite mode) build 49521"
   867  0000                     RCREG equ 0FAEh ;# 
   868                           opt subtitle "HI-TECH Software Omniscient Code Generator (Lite mode) build 49521"
   869  0000                     RC1REG equ 0FAEh ;# 
   870                           opt subtitle "HI-TECH Software Omniscient Code Generator (Lite mode) build 49521"
   871  0000                     SPBRG1 equ 0FAFh ;# 
   872                           opt subtitle "HI-TECH Software Omniscient Code Generator (Lite mode) build 49521"
   873  0000                     SPBRG equ 0FAFh ;# 
   874                           opt subtitle "HI-TECH Software Omniscient Code Generator (Lite mode) build 49521"
   875  0000                     SP1BRG equ 0FAFh ;# 
   876                           opt subtitle "HI-TECH Software Omniscient Code Generator (Lite mode) build 49521"
   877  0000                     SPBRGH1 equ 0FB0h ;# 
   878                           opt subtitle "HI-TECH Software Omniscient Code Generator (Lite mode) build 49521"
   879  0000                     SPBRGH equ 0FB0h ;# 
   880                           opt subtitle "HI-TECH Software Omniscient Code Generator (Lite mode) build 49521"
   881  0000                     SP1BRGH equ 0FB0h ;# 
   882                           opt subtitle "HI-TECH Software Omniscient Code Generator (Lite mode) build 49521"
   883  0000                     T3CON equ 0FB1h ;# 
   884                           opt subtitle "HI-TECH Software Omniscient Code Generator (Lite mode) build 49521"
   885  0000                     TMR3 equ 0FB2h ;# 
   886                           opt subtitle "HI-TECH Software Omniscient Code Generator (Lite mode) build 49521"
   887  0000                     TMR3L equ 0FB2h ;# 
   888                           opt subtitle "HI-TECH Software Omniscient Code Generator (Lite mode) build 49521"
   889  0000                     TMR3H equ 0FB3h ;# 
   890                           opt subtitle "HI-TECH Software Omniscient Code Generator (Lite mode) build 49521"
   891  0000                     T3GCON equ 0FB4h ;# 
   892                           opt subtitle "HI-TECH Software Omniscient Code Generator (Lite mode) build 49521"
   893  0000                     ECCP1AS equ 0FB6h ;# 
   894                           opt subtitle "HI-TECH Software Omniscient Code Generator (Lite mode) build 49521"
   895  0000                     ECCPAS equ 0FB6h ;# 
   896                           opt subtitle "HI-TECH Software Omniscient Code Generator (Lite mode) build 49521"
   897  0000                     PWM1CON equ 0FB7h ;# 
   898                           opt subtitle "HI-TECH Software Omniscient Code Generator (Lite mode) build 49521"
   899  0000                     PWMCON equ 0FB7h ;# 
   900                           opt subtitle "HI-TECH Software Omniscient Code Generator (Lite mode) build 49521"
   901  0000                     BAUDCON1 equ 0FB8h ;# 
   902                           opt subtitle "HI-TECH Software Omniscient Code Generator (Lite mode) build 49521"
   903  0000                     BAUDCON equ 0FB8h ;# 
   904                           opt subtitle "HI-TECH Software Omniscient Code Generator (Lite mode) build 49521"
   905  0000                     BAUDCTL equ 0FB8h ;# 
   906                           opt subtitle "HI-TECH Software Omniscient Code Generator (Lite mode) build 49521"
   907  0000                     BAUD1CON equ 0FB8h ;# 
   908                           opt subtitle "HI-TECH Software Omniscient Code Generator (Lite mode) build 49521"
   909  0000                     PSTR1CON equ 0FB9h ;# 
   910                           opt subtitle "HI-TECH Software Omniscient Code Generator (Lite mode) build 49521"
   911  0000                     PSTRCON equ 0FB9h ;# 
   912                           opt subtitle "HI-TECH Software Omniscient Code Generator (Lite mode) build 49521"
   913  0000                     T2CON equ 0FBAh ;# 
   914                           opt subtitle "HI-TECH Software Omniscient Code Generator (Lite mode) build 49521"
   915  0000                     PR2 equ 0FBBh ;# 
   916                           opt subtitle "HI-TECH Software Omniscient Code Generator (Lite mode) build 49521"
   917  0000                     TMR2 equ 0FBCh ;# 
   918                           opt subtitle "HI-TECH Software Omniscient Code Generator (Lite mode) build 49521"
   919  0000                     CCP1CON equ 0FBDh ;# 
   920                           opt subtitle "HI-TECH Software Omniscient Code Generator (Lite mode) build 49521"
   921  0000                     CCPR1 equ 0FBEh ;# 
   922                           opt subtitle "HI-TECH Software Omniscient Code Generator (Lite mode) build 49521"
   923  0000                     CCPR1L equ 0FBEh ;# 
   924                           opt subtitle "HI-TECH Software Omniscient Code Generator (Lite mode) build 49521"
   925  0000                     CCPR1H equ 0FBFh ;# 
   926                           opt subtitle "HI-TECH Software Omniscient Code Generator (Lite mode) build 49521"
   927  0000                     ADCON2 equ 0FC0h ;# 
   928                           opt subtitle "HI-TECH Software Omniscient Code Generator (Lite mode) build 49521"
   929  0000                     ADCON1 equ 0FC1h ;# 
   930                           opt subtitle "HI-TECH Software Omniscient Code Generator (Lite mode) build 49521"
   931  0000                     ADCON0 equ 0FC2h ;# 
   932                           opt subtitle "HI-TECH Software Omniscient Code Generator (Lite mode) build 49521"
   933  0000                     ADRES equ 0FC3h ;# 
   934                           opt subtitle "HI-TECH Software Omniscient Code Generator (Lite mode) build 49521"
   935  0000                     ADRESL equ 0FC3h ;# 
   936                           opt subtitle "HI-TECH Software Omniscient Code Generator (Lite mode) build 49521"
   937  0000                     ADRESH equ 0FC4h ;# 
   938                           opt subtitle "HI-TECH Software Omniscient Code Generator (Lite mode) build 49521"
   939  0000                     SSP1CON2 equ 0FC5h ;# 
   940                           opt subtitle "HI-TECH Software Omniscient Code Generator (Lite mode) build 49521"
   941  0000                     SSPCON2 equ 0FC5h ;# 
   942                           opt subtitle "HI-TECH Software Omniscient Code Generator (Lite mode) build 49521"
   943  0000                     SSP1CON1 equ 0FC6h ;# 
   944                           opt subtitle "HI-TECH Software Omniscient Code Generator (Lite mode) build 49521"
   945  0000                     SSPCON1 equ 0FC6h ;# 
   946                           opt subtitle "HI-TECH Software Omniscient Code Generator (Lite mode) build 49521"
   947  0000                     SSP1STAT equ 0FC7h ;# 
   948                           opt subtitle "HI-TECH Software Omniscient Code Generator (Lite mode) build 49521"
   949  0000                     SSPSTAT equ 0FC7h ;# 
   950                           opt subtitle "HI-TECH Software Omniscient Code Generator (Lite mode) build 49521"
   951  0000                     SSP1ADD equ 0FC8h ;# 
   952                           opt subtitle "HI-TECH Software Omniscient Code Generator (Lite mode) build 49521"
   953  0000                     SSPADD equ 0FC8h ;# 
   954                           opt subtitle "HI-TECH Software Omniscient Code Generator (Lite mode) build 49521"
   955  0000                     SSP1BUF equ 0FC9h ;# 
   956                           opt subtitle "HI-TECH Software Omniscient Code Generator (Lite mode) build 49521"
   957  0000                     SSPBUF equ 0FC9h ;# 
   958                           opt subtitle "HI-TECH Software Omniscient Code Generator (Lite mode) build 49521"
   959  0000                     SSP1MSK equ 0FCAh ;# 
   960                           opt subtitle "HI-TECH Software Omniscient Code Generator (Lite mode) build 49521"
   961  0000                     SSPMSK equ 0FCAh ;# 
   962                           opt subtitle "HI-TECH Software Omniscient Code Generator (Lite mode) build 49521"
   963  0000                     SSP1CON3 equ 0FCBh ;# 
   964                           opt subtitle "HI-TECH Software Omniscient Code Generator (Lite mode) build 49521"
   965  0000                     SSPCON3 equ 0FCBh ;# 
   966                           opt subtitle "HI-TECH Software Omniscient Code Generator (Lite mode) build 49521"
   967  0000                     T1GCON equ 0FCCh ;# 
   968                           opt subtitle "HI-TECH Software Omniscient Code Generator (Lite mode) build 49521"
   969  0000                     T1CON equ 0FCDh ;# 
   970                           opt subtitle "HI-TECH Software Omniscient Code Generator (Lite mode) build 49521"
   971  0000                     TMR1 equ 0FCEh ;# 
   972                           opt subtitle "HI-TECH Software Omniscient Code Generator (Lite mode) build 49521"
   973  0000                     TMR1L equ 0FCEh ;# 
   974                           opt subtitle "HI-TECH Software Omniscient Code Generator (Lite mode) build 49521"
   975  0000                     TMR1H equ 0FCFh ;# 
   976                           opt subtitle "HI-TECH Software Omniscient Code Generator (Lite mode) build 49521"
   977  0000                     RCON equ 0FD0h ;# 
   978                           opt subtitle "HI-TECH Software Omniscient Code Generator (Lite mode) build 49521"
   979  0000                     WDTCON equ 0FD1h ;# 
   980                           opt subtitle "HI-TECH Software Omniscient Code Generator (Lite mode) build 49521"
   981  0000                     OSCCON2 equ 0FD2h ;# 
   982                           opt subtitle "HI-TECH Software Omniscient Code Generator (Lite mode) build 49521"
   983  0000                     OSCCON equ 0FD3h ;# 
   984                           opt subtitle "HI-TECH Software Omniscient Code Generator (Lite mode) build 49521"
   985  0000                     T0CON equ 0FD5h ;# 
   986                           opt subtitle "HI-TECH Software Omniscient Code Generator (Lite mode) build 49521"
   987  0000                     TMR0 equ 0FD6h ;# 
   988                           opt subtitle "HI-TECH Software Omniscient Code Generator (Lite mode) build 49521"
   989  0000                     TMR0L equ 0FD6h ;# 
   990                           opt subtitle "HI-TECH Software Omniscient Code Generator (Lite mode) build 49521"
   991  0000                     TMR0H equ 0FD7h ;# 
   992                           opt subtitle "HI-TECH Software Omniscient Code Generator (Lite mode) build 49521"
   993  0000                     STATUS equ 0FD8h ;# 
   994                           opt subtitle "HI-TECH Software Omniscient Code Generator (Lite mode) build 49521"
   995  0000                     FSR2 equ 0FD9h ;# 
   996                           opt subtitle "HI-TECH Software Omniscient Code Generator (Lite mode) build 49521"
   997  0000                     FSR2L equ 0FD9h ;# 
   998                           opt subtitle "HI-TECH Software Omniscient Code Generator (Lite mode) build 49521"
   999  0000                     FSR2H equ 0FDAh ;# 
  1000                           opt subtitle "HI-TECH Software Omniscient Code Generator (Lite mode) build 49521"
  1001  0000                     PLUSW2 equ 0FDBh ;# 
  1002                           opt subtitle "HI-TECH Software Omniscient Code Generator (Lite mode) build 49521"
  1003  0000                     PREINC2 equ 0FDCh ;# 
  1004                           opt subtitle "HI-TECH Software Omniscient Code Generator (Lite mode) build 49521"
  1005  0000                     POSTDEC2 equ 0FDDh ;# 
  1006                           opt subtitle "HI-TECH Software Omniscient Code Generator (Lite mode) build 49521"
  1007  0000                     POSTINC2 equ 0FDEh ;# 
  1008                           opt subtitle "HI-TECH Software Omniscient Code Generator (Lite mode) build 49521"
  1009  0000                     INDF2 equ 0FDFh ;# 
  1010                           opt subtitle "HI-TECH Software Omniscient Code Generator (Lite mode) build 49521"
  1011  0000                     BSR equ 0FE0h ;# 
  1012                           opt subtitle "HI-TECH Software Omniscient Code Generator (Lite mode) build 49521"
  1013  0000                     FSR1 equ 0FE1h ;# 
  1014                           opt subtitle "HI-TECH Software Omniscient Code Generator (Lite mode) build 49521"
  1015  0000                     FSR1L equ 0FE1h ;# 
  1016                           opt subtitle "HI-TECH Software Omniscient Code Generator (Lite mode) build 49521"
  1017  0000                     FSR1H equ 0FE2h ;# 
  1018                           opt subtitle "HI-TECH Software Omniscient Code Generator (Lite mode) build 49521"
  1019  0000                     PLUSW1 equ 0FE3h ;# 
  1020                           opt subtitle "HI-TECH Software Omniscient Code Generator (Lite mode) build 49521"
  1021  0000                     PREINC1 equ 0FE4h ;# 
  1022                           opt subtitle "HI-TECH Software Omniscient Code Generator (Lite mode) build 49521"
  1023  0000                     POSTDEC1 equ 0FE5h ;# 
  1024                           opt subtitle "HI-TECH Software Omniscient Code Generator (Lite mode) build 49521"
  1025  0000                     POSTINC1 equ 0FE6h ;# 
  1026                           opt subtitle "HI-TECH Software Omniscient Code Generator (Lite mode) build 49521"
  1027  0000                     INDF1 equ 0FE7h ;# 
  1028                           opt subtitle "HI-TECH Software Omniscient Code Generator (Lite mode) build 49521"
  1029  0000                     WREG equ 0FE8h ;# 
  1030                           opt subtitle "HI-TECH Software Omniscient Code Generator (Lite mode) build 49521"
  1031  0000                     FSR0 equ 0FE9h ;# 
  1032                           opt subtitle "HI-TECH Software Omniscient Code Generator (Lite mode) build 49521"
  1033  0000                     FSR0L equ 0FE9h ;# 
  1034                           opt subtitle "HI-TECH Software Omniscient Code Generator (Lite mode) build 49521"
  1035  0000                     FSR0H equ 0FEAh ;# 
  1036                           opt subtitle "HI-TECH Software Omniscient Code Generator (Lite mode) build 49521"
  1037  0000                     PLUSW0 equ 0FEBh ;# 
  1038                           opt subtitle "HI-TECH Software Omniscient Code Generator (Lite mode) build 49521"
  1039  0000                     PREINC0 equ 0FECh ;# 
  1040                           opt subtitle "HI-TECH Software Omniscient Code Generator (Lite mode) build 49521"
  1041  0000                     POSTDEC0 equ 0FEDh ;# 
  1042                           opt subtitle "HI-TECH Software Omniscient Code Generator (Lite mode) build 49521"
  1043  0000                     POSTINC0 equ 0FEEh ;# 
  1044                           opt subtitle "HI-TECH Software Omniscient Code Generator (Lite mode) build 49521"
  1045  0000                     INDF0 equ 0FEFh ;# 
  1046                           opt subtitle "HI-TECH Software Omniscient Code Generator (Lite mode) build 49521"
  1047  0000                     INTCON3 equ 0FF0h ;# 
  1048                           opt subtitle "HI-TECH Software Omniscient Code Generator (Lite mode) build 49521"
  1049  0000                     INTCON2 equ 0FF1h ;# 
  1050                           opt subtitle "HI-TECH Software Omniscient Code Generator (Lite mode) build 49521"
  1051  0000                     INTCON equ 0FF2h ;# 
  1052                           opt subtitle "HI-TECH Software Omniscient Code Generator (Lite mode) build 49521"
  1053  0000                     PROD equ 0FF3h ;# 
  1054                           opt subtitle "HI-TECH Software Omniscient Code Generator (Lite mode) build 49521"
  1055  0000                     PRODL equ 0FF3h ;# 
  1056                           opt subtitle "HI-TECH Software Omniscient Code Generator (Lite mode) build 49521"
  1057  0000                     PRODH equ 0FF4h ;# 
  1058                           opt subtitle "HI-TECH Software Omniscient Code Generator (Lite mode) build 49521"
  1059  0000                     TABLAT equ 0FF5h ;# 
  1060                           opt subtitle "HI-TECH Software Omniscient Code Generator (Lite mode) build 49521"
  1061  0000                     TBLPTR equ 0FF6h ;# 
  1062                           opt subtitle "HI-TECH Software Omniscient Code Generator (Lite mode) build 49521"
  1063  0000                     TBLPTRL equ 0FF6h ;# 
  1064                           opt subtitle "HI-TECH Software Omniscient Code Generator (Lite mode) build 49521"
  1065  0000                     TBLPTRH equ 0FF7h ;# 
  1066                           opt subtitle "HI-TECH Software Omniscient Code Generator (Lite mode) build 49521"
  1067  0000                     TBLPTRU equ 0FF8h ;# 
  1068                           opt subtitle "HI-TECH Software Omniscient Code Generator (Lite mode) build 49521"
  1069  0000                     PCLAT equ 0FF9h ;# 
  1070                           opt subtitle "HI-TECH Software Omniscient Code Generator (Lite mode) build 49521"
  1071  0000                     PC equ 0FF9h ;# 
  1072                           opt subtitle "HI-TECH Software Omniscient Code Generator (Lite mode) build 49521"
  1073  0000                     PCL equ 0FF9h ;# 
  1074                           opt subtitle "HI-TECH Software Omniscient Code Generator (Lite mode) build 49521"
  1075  0000                     PCLATH equ 0FFAh ;# 
  1076                           opt subtitle "HI-TECH Software Omniscient Code Generator (Lite mode) build 49521"
  1077  0000                     PCLATU equ 0FFBh ;# 
  1078                           opt subtitle "HI-TECH Software Omniscient Code Generator (Lite mode) build 49521"
  1079  0000                     STKPTR equ 0FFCh ;# 
  1080                           opt subtitle "HI-TECH Software Omniscient Code Generator (Lite mode) build 49521"
  1081  0000                     TOS equ 0FFDh ;# 
  1082                           opt subtitle "HI-TECH Software Omniscient Code Generator (Lite mode) build 49521"
  1083  0000                     TOSL equ 0FFDh ;# 
  1084                           opt subtitle "HI-TECH Software Omniscient Code Generator (Lite mode) build 49521"
  1085  0000                     TOSH equ 0FFEh ;# 
  1086                           opt subtitle "HI-TECH Software Omniscient Code Generator (Lite mode) build 49521"
  1087  0000                     TOSU equ 0FFFh ;# 
  1088                           opt subtitle "HI-TECH Software Omniscient Code Generator (Lite mode) build 49521"
  1089                           
  1090                           opt pagewidth 120
  1091                           
  1092                           	opt lm
  1093                           
  1094                           	processor	18F26K22
  1095                           porta	equ	0F80h
  1096                           portb	equ	0F81h
  1097                           portc	equ	0F82h
  1098                           portd	equ	0F83h
  1099                           porte	equ	0F84h
  1100                           lata	equ	0F89h
  1101                           latb	equ	0F8Ah
  1102                           latc	equ	0F8Bh
  1103                           latd	equ	0F8Ch
  1104                           late	equ	0F8Dh
  1105                           trisa	equ	0F92h
  1106  0005D0                     __pidataCOMRAM:
  1107                           opt subtitle "HI-TECH Software Omniscient Code Generator (Lite mode) build 49521"
  1108                           
  1109                           opt pagewidth 120
  1110                           
  1111  0005D0  32                 	db	low(032h)
  1112  0005D1  32                 	db	low(032h)
  1113  0005D2  32                 	db	low(032h)
  1114  0005D3  32                 	db	low(032h)
  1115  0005D4  32                 	db	low(032h)
  1116  0005D5  32                 	db	low(032h)
  1117                           opt subtitle "HI-TECH Software Omniscient Code Generator (Lite mode) build 49521"
  1118                           
  1119                           opt pagewidth 120
  1120  0005D6  01                 	db	low(01h)
  1121                           opt subtitle "HI-TECH Software Omniscient Code Generator (Lite mode) build 49521"
  1122                           
  1123  0005D7  01                 	db	low(01h)
  1124                           opt subtitle "HI-TECH Software Omniscient Code Generator (Lite mode) build 49521"
  1125                           
  1126  0005D8  01                 	db	low(01h)
  1127                           opt subtitle "HI-TECH Software Omniscient Code Generator (Lite mode) build 49521"
  1128                           
  1129  0005D9  01                 	db	low(01h)
  1130                           opt subtitle "HI-TECH Software Omniscient Code Generator (Lite mode) build 49521"
  1131                           
  1132  0005DA  01                 	db	low(01h)
  1133                           opt subtitle "HI-TECH Software Omniscient Code Generator (Lite mode) build 49521"
  1134                           
  1135  0005DB  01                 	db	low(01h)
  1136                           opt subtitle "HI-TECH Software Omniscient Code Generator (Lite mode) build 49521"
  1137                           
  1138                           opt pagewidth 120
  1139                           
  1140                           	opt lm
  1141                           
  1142                           	processor	18F26K22
  1143                           porta	equ	0F80h
  1144                           portb	equ	0F81h
  1145                           portc	equ	0F82h
  1146                           portd	equ	0F83h
  1147                           porte	equ	0F84h
  1148                           lata	equ	0F89h
  1149                           latb	equ	0F8Ah
  1150                           latc	equ	0F8Bh
  1151  0000                     _ANSELB	set	0xF39
  1152                           opt subtitle "HI-TECH Software Omniscient Code Generator (Lite mode) build 49521"
  1153  0000                     _ANSELC	set	0xF3A
  1154                           opt subtitle "HI-TECH Software Omniscient Code Generator (Lite mode) build 49521"
  1155  0000                     _INTCON2bits	set	0xFF1
  1156                           opt subtitle "HI-TECH Software Omniscient Code Generator (Lite mode) build 49521"
  1157  0000                     _INTCONbits	set	0xFF2
  1158                           opt subtitle "HI-TECH Software Omniscient Code Generator (Lite mode) build 49521"
  1159  0000                     _LATAbits	set	0xF89
  1160                           opt subtitle "HI-TECH Software Omniscient Code Generator (Lite mode) build 49521"
  1161  0000                     _LATBbits	set	0xF8A
  1162                           opt subtitle "HI-TECH Software Omniscient Code Generator (Lite mode) build 49521"
  1163  0000                     _LATCbits	set	0xF8B
  1164                           opt subtitle "HI-TECH Software Omniscient Code Generator (Lite mode) build 49521"
  1165  0000                     _OSCCONbits	set	0xFD3
  1166                           opt subtitle "HI-TECH Software Omniscient Code Generator (Lite mode) build 49521"
  1167  0000                     _OSCTUNEbits	set	0xF9B
  1168                           opt subtitle "HI-TECH Software Omniscient Code Generator (Lite mode) build 49521"
  1169  0000                     _PIE1bits	set	0xF9D
  1170                           opt subtitle "HI-TECH Software Omniscient Code Generator (Lite mode) build 49521"
  1171  0000                     _PIR1bits	set	0xF9E
  1172                           opt subtitle "HI-TECH Software Omniscient Code Generator (Lite mode) build 49521"
  1173  0000                     _RCONbits	set	0xFD0
  1174                           opt subtitle "HI-TECH Software Omniscient Code Generator (Lite mode) build 49521"
  1175  0000                     _SSP1ADD	set	0xFC8
  1176                           opt subtitle "HI-TECH Software Omniscient Code Generator (Lite mode) build 49521"
  1177  0000                     _SSP1BUF	set	0xFC9
  1178                           opt subtitle "HI-TECH Software Omniscient Code Generator (Lite mode) build 49521"
  1179  0000                     _SSP1CON1bits	set	0xFC6
  1180                           opt subtitle "HI-TECH Software Omniscient Code Generator (Lite mode) build 49521"
  1181  0000                     _SSP1CON2bits	set	0xFC5
  1182                           opt subtitle "HI-TECH Software Omniscient Code Generator (Lite mode) build 49521"
  1183  0000                     _SSP1STATbits	set	0xFC7
  1184                           opt subtitle "HI-TECH Software Omniscient Code Generator (Lite mode) build 49521"
  1185  0000                     _T0CON	set	0xFD5
  1186                           opt subtitle "HI-TECH Software Omniscient Code Generator (Lite mode) build 49521"
  1187  0000                     _T0CONbits	set	0xFD5
  1188                           opt subtitle "HI-TECH Software Omniscient Code Generator (Lite mode) build 49521"
  1189  0000                     _TMR0L	set	0xFD6
  1190                           opt subtitle "HI-TECH Software Omniscient Code Generator (Lite mode) build 49521"
  1191  0000                     _TRISAbits	set	0xF92
  1192                           opt subtitle "HI-TECH Software Omniscient Code Generator (Lite mode) build 49521"
  1193  0000                     _TRISBbits	set	0xF93
  1194                           opt subtitle "HI-TECH Software Omniscient Code Generator (Lite mode) build 49521"
  1195  0000                     _TRISC	set	0xF94
  1196                           opt subtitle "HI-TECH Software Omniscient Code Generator (Lite mode) build 49521"
  1197  0000                     _TRISCbits	set	0xF94
  1198                           opt subtitle "HI-TECH Software Omniscient Code Generator (Lite mode) build 49521"
  1199                           
  1200                           opt pagewidth 120
  1201  000037                     __pnvCOMRAM:
  1202                           opt subtitle "HI-TECH Software Omniscient Code Generator (Lite mode) build 49521"
  1203  000037                     _AIL_PWM_REG:
  1204  000037                            ds      2
  1205                           opt subtitle "HI-TECH Software Omniscient Code Generator (Lite mode) build 49521"
  1206                           
  1207  000039                     _AUX_PWM_REG:
  1208  000039                            ds      2
  1209                           opt subtitle "HI-TECH Software Omniscient Code Generator (Lite mode) build 49521"
  1210                           
  1211  00003B                     _ELEV_PWM_REG:
  1212  00003B                            ds      2
  1213                           opt subtitle "HI-TECH Software Omniscient Code Generator (Lite mode) build 49521"
  1214                           
  1215  00003D                     _ESC_PWM_REG:
  1216  00003D                            ds      2
  1217                           opt subtitle "HI-TECH Software Omniscient Code Generator (Lite mode) build 49521"
  1218                           
  1219  00003F                     _GEAR_PWM_REG:
  1220  00003F                            ds      2
  1221                           opt subtitle "HI-TECH Software Omniscient Code Generator (Lite mode) build 49521"
  1222                           
  1223  000041                     _RUDD_PWM_REG:
  1224  000041                            ds      2
  1225                           opt subtitle "HI-TECH Software Omniscient Code Generator (Lite mode) build 49521"
  1226                           
  1227  0000                     __CFG_IESO$OFF equ 0x0
  1228                           opt subtitle "HI-TECH Software Omniscient Code Generator (Lite mode) build 49521"
  1229  0000                     __CFG_FOSC$INTIO67 equ 0x0
  1230                           opt subtitle "HI-TECH Software Omniscient Code Generator (Lite mode) build 49521"
  1231  0000                     __CFG_PRICLKEN$ON equ 0x0
  1232                           opt subtitle "HI-TECH Software Omniscient Code Generator (Lite mode) build 49521"
  1233  0000                     __CFG_FCMEN$OFF equ 0x0
  1234                           opt subtitle "HI-TECH Software Omniscient Code Generator (Lite mode) build 49521"
  1235  0000                     __CFG_PLLCFG$ON equ 0x0
  1236                           opt subtitle "HI-TECH Software Omniscient Code Generator (Lite mode) build 49521"
  1237  0000                     __CFG_BOREN$SBORDIS equ 0x0
  1238                           opt subtitle "HI-TECH Software Omniscient Code Generator (Lite mode) build 49521"
  1239  0000                     __CFG_BORV$250 equ 0x0
  1240                           opt subtitle "HI-TECH Software Omniscient Code Generator (Lite mode) build 49521"
  1241  0000                     __CFG_PWRTEN$ON equ 0x0
  1242                           opt subtitle "HI-TECH Software Omniscient Code Generator (Lite mode) build 49521"
  1243  0000                     __CFG_WDTPS$128 equ 0x0
  1244                           opt subtitle "HI-TECH Software Omniscient Code Generator (Lite mode) build 49521"
  1245  0000                     __CFG_WDTEN$ON equ 0x0
  1246                           opt subtitle "HI-TECH Software Omniscient Code Generator (Lite mode) build 49521"
  1247  0000                     __CFG_CCP2MX$PORTB3 equ 0x0
  1248                           opt subtitle "HI-TECH Software Omniscient Code Generator (Lite mode) build 49521"
  1249  0000                     __CFG_PBADEN$OFF equ 0x0
  1250                           opt subtitle "HI-TECH Software Omniscient Code Generator (Lite mode) build 49521"
  1251  0000                     __CFG_CCP3MX$PORTB5 equ 0x0
  1252                           opt subtitle "HI-TECH Software Omniscient Code Generator (Lite mode) build 49521"
  1253  0000                     __CFG_MCLRE$EXTMCLR equ 0x0
  1254                           opt subtitle "HI-TECH Software Omniscient Code Generator (Lite mode) build 49521"
  1255  0000                     __CFG_DEBUG$ON equ 0x0
  1256                           opt subtitle "HI-TECH Software Omniscient Code Generator (Lite mode) build 49521"
  1257  0000                     __CFG_STVREN$ON equ 0x0
  1258                           opt subtitle "HI-TECH Software Omniscient Code Generator (Lite mode) build 49521"
  1259                           
  1260                           opt pagewidth 120
  1261                           
  1262  000558                     __pcinit:
  1263                           opt subtitle "HI-TECH Software Omniscient Code Generator (Lite mode) build 49521"
  1264  000558                     start_initialization:
  1265                           opt subtitle "HI-TECH Software Omniscient Code Generator (Lite mode) build 49521"
  1266                           
  1267  000558                     __initialization:
  1268                           opt subtitle "HI-TECH Software Omniscient Code Generator (Lite mode) build 49521"
  1269                           
  1270  000001                     __pbssCOMRAM:
  1271                           opt subtitle "HI-TECH Software Omniscient Code Generator (Lite mode) build 49521"
  1272  000001                     _kickAutoCount:
  1273  000001                            ds      4
  1274                           opt subtitle "HI-TECH Software Omniscient Code Generator (Lite mode) build 49521"
  1275  000005                     _AIL_PWM_BUFFER_REG:
  1276  000005                            ds      2
  1277                           opt subtitle "HI-TECH Software Omniscient Code Generator (Lite mode) build 49521"
  1278  000007                     _AUX_PWM_BUFFER_REG:
  1279  000007                            ds      2
  1280                           opt subtitle "HI-TECH Software Omniscient Code Generator (Lite mode) build 49521"
  1281  000009                     _ELEV_PWM_BUFFER_REG:
  1282  000009                            ds      2
  1283                           opt subtitle "HI-TECH Software Omniscient Code Generator (Lite mode) build 49521"
  1284  00000B                     _ESC_PWM_BUFFER_REG:
  1285  00000B                            ds      2
  1286                           opt subtitle "HI-TECH Software Omniscient Code Generator (Lite mode) build 49521"
  1287  00000D                     _GEAR_PWM_BUFFER_REG:
  1288  00000D                            ds      2
  1289                           opt subtitle "HI-TECH Software Omniscient Code Generator (Lite mode) build 49521"
  1290  00000F                     _RUDD_PWM_BUFFER_REG:
  1291  00000F                            ds      2
  1292                           opt subtitle "HI-TECH Software Omniscient Code Generator (Lite mode) build 49521"
  1293  000011                     _count:
  1294  000011                            ds      2
  1295                           opt subtitle "HI-TECH Software Omniscient Code Generator (Lite mode) build 49521"
  1296  000013                     _I2C_FSM:
  1297  000013                            ds      1
  1298                           opt subtitle "HI-TECH Software Omniscient Code Generator (Lite mode) build 49521"
  1299  000014                     _RECEIVING_FROM_MASTER:
  1300  000014                            ds      1
  1301                           opt subtitle "HI-TECH Software Omniscient Code Generator (Lite mode) build 49521"
  1302  000015                     _checksum:
  1303  000015                            ds      1
  1304                           opt subtitle "HI-TECH Software Omniscient Code Generator (Lite mode) build 49521"
  1305  000016                     _data_updated:
  1306  000016                            ds      1
  1307  000017                     i2c_process@buffer:
  1308  000017                            ds      1
  1309                           opt subtitle "HI-TECH Software Omniscient Code Generator (Lite mode) build 49521"
  1310  000018                     _dataBuffer:
  1311  000018                            ds      8
  1312                           opt subtitle "HI-TECH Software Omniscient Code Generator (Lite mode) build 49521"
  1313                           
  1314  000043                     __pdataCOMRAM:
  1315                           opt subtitle "HI-TECH Software Omniscient Code Generator (Lite mode) build 49521"
  1316                           
  1317                           opt pagewidth 120
  1318                           
  1319  000043                     _percentActuation:
  1320  000043                            ds      6
  1321                           opt subtitle "HI-TECH Software Omniscient Code Generator (Lite mode) build 49521"
  1322                           
  1323                           opt pagewidth 120
  1324                           
  1325  000049                     _AIL_n:
  1326  000049                            ds      1
  1327                           opt subtitle "HI-TECH Software Omniscient Code Generator (Lite mode) build 49521"
  1328                           
  1329                           opt pagewidth 120
  1330  00004A                     _AUX_n:
  1331  00004A                            ds      1
  1332                           opt subtitle "HI-TECH Software Omniscient Code Generator (Lite mode) build 49521"
  1333                           
  1334                           opt pagewidth 120
  1335  00004B                     _ELEV_n:
  1336  00004B                            ds      1
  1337                           opt subtitle "HI-TECH Software Omniscient Code Generator (Lite mode) build 49521"
  1338                           
  1339                           opt pagewidth 120
  1340  00004C                     _ESC_n:
  1341  00004C                            ds      1
  1342                           opt subtitle "HI-TECH Software Omniscient Code Generator (Lite mode) build 49521"
  1343                           
  1344                           opt pagewidth 120
  1345  00004D                     _GEAR_n:
  1346  00004D                            ds      1
  1347                           opt subtitle "HI-TECH Software Omniscient Code Generator (Lite mode) build 49521"
  1348                           
  1349                           opt pagewidth 120
  1350  00004E                     _RUDD_n:
  1351  00004E                            ds      1
  1352                           opt subtitle "HI-TECH Software Omniscient Code Generator (Lite mode) build 49521"
  1353                           
  1354                           opt pagewidth 120
  1355  000558  EE00  F001         lfsr	0,__pbssCOMRAM
  1356  00055C  0E1F               movlw	31
  1357  00055E                     clear_0:
  1358  00055E  6AEE               clrf	postinc0,c
  1359  000560  06E8               decf	wreg
  1360  000562  E1FD               bnz	clear_0
  1361                           opt subtitle "HI-TECH Software Omniscient Code Generator (Lite mode) build 49521"
  1362                           
  1363                           opt pagewidth 120
  1364  000564  0ED0               	movlw	low (__pidataCOMRAM)
  1365  000566  6EF6               	movwf	tblptrl
  1366  000568  0E05               	movlw	high(__pidataCOMRAM)
  1367  00056A  6EF7               	movwf	tblptrh
  1368  00056C  0E00               	movlw	low highword(__pidataCOMRAM)
  1369  00056E  6EF8               	movwf	tblptru
  1370  000570  EE00  F043         	lfsr	0,__pdataCOMRAM
  1371  000574  EE10 F00C          	lfsr	1,12
  1372  000578                     	copy_data0:
  1373  000578  0009               	tblrd	*+
  1374  00057A  CFF5 FFEE          	movff	tablat, postinc0
  1375  00057E  50E5               	movf	postdec1,w
  1376  000580  50E1               	movf	fsr1l,w
  1377  000582  E1FA               	bnz	copy_data0
  1378                           opt subtitle "HI-TECH Software Omniscient Code Generator (Lite mode) build 49521"
  1379                           
  1380                           opt pagewidth 120
  1381                           
  1382                           	opt lm
  1383  000584                     end_of_initialization:
  1384  000584                     __end_of__initialization:movlb 0
  1385  000586  EF65  F002         goto _main	;jump to C main() function
  1386                           opt subtitle "HI-TECH Software Omniscient Code Generator (Lite mode) build 49521"
  1387                           
  1388  000020                     __pcstackCOMRAM:
  1389  000020                     ?_i2c_process:	; 0 bytes @ 0x0
  1390  000020                     ?_SETUP_clock:	; 0 bytes @ 0x0
  1391  000020                     ?_SETUP_io:	; 0 bytes @ 0x0
  1392  000020                     ?_SETUP_i2c:	; 0 bytes @ 0x0
  1393  000020                     ?_SETUP_PWM:	; 0 bytes @ 0x0
  1394  000020                     ?_InterruptHandlerHigh:	; 0 bytes @ 0x0
  1395  000020                     ??_InterruptHandlerHigh:	; 0 bytes @ 0x0
  1396  000020                     ?_main:	; 2 bytes @ 0x0
  1397  000020                     	ds   14
  1398  00002E                     ??_SETUP_clock:	; 0 bytes @ 0xE
  1399  00002E                     ??_SETUP_io:	; 0 bytes @ 0xE
  1400  00002E                     ??_SETUP_i2c:	; 0 bytes @ 0xE
  1401  00002E                     ??_SETUP_PWM:	; 0 bytes @ 0xE
  1402                           opt subtitle "HI-TECH Software Omniscient Code Generator (Lite mode) build 49521"
  1403  00002E                     ?___awdiv:	; 2 bytes @ 0xE
  1404                           opt subtitle "HI-TECH Software Omniscient Code Generator (Lite mode) build 49521"
  1405  00002E                     ___awdiv@dividend:	; 2 bytes @ 0xE
  1406  00002E                     	ds   2
  1407                           opt subtitle "HI-TECH Software Omniscient Code Generator (Lite mode) build 49521"
  1408  000030                     ___awdiv@divisor:	; 2 bytes @ 0x10
  1409  000030                     	ds   2
  1410  000032                     ??___awdiv:	; 0 bytes @ 0x12
  1411  000032                     	ds   1
  1412                           opt subtitle "HI-TECH Software Omniscient Code Generator (Lite mode) build 49521"
  1413  000033                     ___awdiv@counter:	; 1 bytes @ 0x13
  1414  000033                     	ds   1
  1415                           opt subtitle "HI-TECH Software Omniscient Code Generator (Lite mode) build 49521"
  1416  000034                     ___awdiv@sign:	; 1 bytes @ 0x14
  1417  000034                     	ds   1
  1418                           opt subtitle "HI-TECH Software Omniscient Code Generator (Lite mode) build 49521"
  1419  000035                     ___awdiv@quotient:	; 2 bytes @ 0x15
  1420  000035                     	ds   2
  1421  000037                     ??_i2c_process:	; 0 bytes @ 0x17
  1422  000037                     ??_main:	; 0 bytes @ 0x17
  1423                           opt subtitle "HI-TECH Software Omniscient Code Generator (Lite mode) build 49521"
  1424                           
  1425                           opt pagewidth 120
  1426                           
  1427                           	opt lm
  1428                           
  1429                           	processor	18F26K22
  1430                           porta	equ	0F80h
  1431                           portb	equ	0F81h
  1432                           portc	equ	0F82h
  1433                           portd	equ	0F83h
  1434                           porte	equ	0F84h
  1435                           lata	equ	0F89h
  1436                           latb	equ	0F8Ah
  1437                           latc	equ	0F8Bh
  1438                           latd	equ	0F8Ch
  1439                           late	equ	0F8Dh
  1440                           trisa	equ	0F92h
  1441                           trisb	equ	0F93h
  1442                           trisc	equ	0F94h
  1443                           trisd	equ	0F95h
  1444                           trise	equ	0F96h
  1445                           pie1	equ	0F9Dh
  1446                           pir1	equ	0F9Eh
  1447                           ipr1	equ	0F9Fh
  1448                           pie2	equ	0FA0h
  1449                           pir2	equ	0FA1h
  1450                           ipr2	equ	0FA2h
  1451                           t3con	equ	0FB1h
  1452                           tmr3l	equ	0FB2h
  1453                           tmr3h	equ	0FB3h
  1454                           ccp1con	equ	0FBDh
  1455                           ccpr1l	equ	0FBEh
  1456                           ccpr1h	equ	0FBFh
  1457                           adcon1	equ	0FC1h
  1458                           adcon0	equ	0FC2h
  1459                           adresl	equ	0FC3h
  1460                           adresh	equ	0FC4h
  1461                           sspcon2	equ	0FC5h
  1462                           sspcon1	equ	0FC6h
  1463                           sspstat	equ	0FC7h
  1464                           sspadd	equ	0FC8h
  1465                           sspbuf	equ	0FC9h
  1466                           t2con	equ	0FCAh
  1467                           pr2	equ	0FCBh
  1468                           tmr2	equ	0FCCh
  1469                           t1con	equ	0FCDh
  1470                           tmr1l	equ	0FCEh
  1471                           tmr1h	equ	0FCFh
  1472                           rcon	equ	0FD0h
  1473                           wdtcon	equ	0FD1h
  1474                           lvdcon	equ	0FD2h
  1475                           osccon	equ	0FD3h
  1476                           t0con	equ	0FD5h
  1477                           tmr0l	equ	0FD6h
  1478                           tmr0h	equ	0FD7h
  1479                           status	equ	0FD8h
  1480                           fsr2	equ	0FD9h
  1481                           fsr2l	equ	0FD9h
  1482                           fsr2h	equ	0FDAh
  1483                           plusw2	equ	0FDBh
  1484                           preinc2	equ	0FDCh
  1485                           postdec2	equ	0FDDh
  1486                           postinc2	equ	0FDEh
  1487                           indf2	equ	0FDFh
  1488                           bsr	equ	0FE0h
  1489                           fsr1	equ	0FE1h
  1490                           fsr1l	equ	0FE1h
  1491                           fsr1h	equ	0FE2h
  1492                           plusw1	equ	0FE3h
  1493                           preinc1	equ	0FE4h
  1494                           postdec1	equ	0FE5h
  1495                           postinc1	equ	0FE6h
  1496                           indf1	equ	0FE7h
  1497                           wreg	equ	0FE8h
  1498                           fsr0	equ	0FE9h
  1499                           fsr0l	equ	0FE9h
  1500                           fsr0h	equ	0FEAh
  1501                           plusw0	equ	0FEBh
  1502                           preinc0	equ	0FECh
  1503                           postdec0	equ	0FEDh
  1504                           postinc0	equ	0FEEh
  1505                           indf0	equ	0FEFh
  1506                           intcon3	equ	0FF0h
  1507                           intcon2	equ	0FF1h
  1508                           intcon	equ	0FF2h
  1509                           prod	equ	0FF3h
  1510                           prodl	equ	0FF3h
  1511                           prodh	equ	0FF4h
  1512                           tablat	equ	0FF5h
  1513                           tblptr	equ	0FF6h
  1514                           tblptrl	equ	0FF6h
  1515                           tblptrh	equ	0FF7h
  1516                           tblptru	equ	0FF8h
  1517                           pcl	equ	0FF9h
  1518                           pclat	equ	0FFAh
  1519                           pclath	equ	0FFAh
  1520                           pclatu	equ	0FFBh
  1521                           stkptr	equ	0FFCh
  1522                           tosl	equ	0FFDh
  1523                           tosh	equ	0FFEh
  1524                           tosu	equ	0FFFh
  1525                           skipnz macro
  1526                           	btfsc	status,2
  1527                           	endm
  1528                           	global	__ramtop
  1529                           	global	__accesstop
  1530                           # 46 "/opt/microchip/xc8/v1.12/include/pic18f26k22.h"
  1531                           ANSELA equ 0F38h ;# 
  1532                           # 90 "/opt/microchip/xc8/v1.12/include/pic18f26k22.h"
  1533                           ANSELB equ 0F39h ;# 
  1534                           # 139 "/opt/microchip/xc8/v1.12/include/pic18f26k22.h"
  1535                           ANSELC equ 0F3Ah ;# 
  1536                           # 189 "/opt/microchip/xc8/v1.12/include/pic18f26k22.h"
  1537                           PMD2 equ 0F3Dh ;# 
  1538                           # 226 "/opt/microchip/xc8/v1.12/include/pic18f26k22.h"
  1539                           PMD1 equ 0F3Eh ;# 
  1540                           # 290 "/opt/microchip/xc8/v1.12/include/pic18f26k22.h"
  1541                           PMD0 equ 0F3Fh ;# 
  1542                           # 369 "/opt/microchip/xc8/v1.12/include/pic18f26k22.h"
  1543                           VREFCON2 equ 0F40h ;# 
  1544                           # 374 "/opt/microchip/xc8/v1.12/include/pic18f26k22.h"
  1545                           DACCON1 equ 0F40h ;# 
  1546                           # 470 "/opt/microchip/xc8/v1.12/include/pic18f26k22.h"
  1547                           VREFCON1 equ 0F41h ;# 
  1548                           # 475 "/opt/microchip/xc8/v1.12/include/pic18f26k22.h"
  1549                           DACCON0 equ 0F41h ;# 
  1550                           # 589 "/opt/microchip/xc8/v1.12/include/pic18f26k22.h"
  1551                           VREFCON0 equ 0F42h ;# 
  1552                           # 594 "/opt/microchip/xc8/v1.12/include/pic18f26k22.h"
  1553                           FVRCON equ 0F42h ;# 
  1554                           # 682 "/opt/microchip/xc8/v1.12/include/pic18f26k22.h"
  1555                           CTMUICON equ 0F43h ;# 
  1556                           # 687 "/opt/microchip/xc8/v1.12/include/pic18f26k22.h"
  1557                           CTMUICONH equ 0F43h ;# 
  1558                           # 831 "/opt/microchip/xc8/v1.12/include/pic18f26k22.h"
  1559                           CTMUCONL equ 0F44h ;# 
  1560                           # 836 "/opt/microchip/xc8/v1.12/include/pic18f26k22.h"
  1561                           CTMUCON1 equ 0F44h ;# 
  1562                           # 984 "/opt/microchip/xc8/v1.12/include/pic18f26k22.h"
  1563                           CTMUCONH equ 0F45h ;# 
  1564                           # 989 "/opt/microchip/xc8/v1.12/include/pic18f26k22.h"
  1565                           CTMUCON0 equ 0F45h ;# 
  1566                           # 1095 "/opt/microchip/xc8/v1.12/include/pic18f26k22.h"
  1567                           SRCON1 equ 0F46h ;# 
  1568                           # 1156 "/opt/microchip/xc8/v1.12/include/pic18f26k22.h"
  1569                           SRCON0 equ 0F47h ;# 
  1570                           # 1226 "/opt/microchip/xc8/v1.12/include/pic18f26k22.h"
  1571                           CCPTMRS1 equ 0F48h ;# 
  1572                           # 1277 "/opt/microchip/xc8/v1.12/include/pic18f26k22.h"
  1573                           CCPTMRS0 equ 0F49h ;# 
  1574                           # 1350 "/opt/microchip/xc8/v1.12/include/pic18f26k22.h"
  1575                           T6CON equ 0F4Ah ;# 
  1576                           # 1420 "/opt/microchip/xc8/v1.12/include/pic18f26k22.h"
  1577                           PR6 equ 0F4Bh ;# 
  1578                           # 1439 "/opt/microchip/xc8/v1.12/include/pic18f26k22.h"
  1579                           TMR6 equ 0F4Ch ;# 
  1580                           # 1458 "/opt/microchip/xc8/v1.12/include/pic18f26k22.h"
  1581                           T5GCON equ 0F4Dh ;# 
  1582                           # 1552 "/opt/microchip/xc8/v1.12/include/pic18f26k22.h"
  1583                           T5CON equ 0F4Eh ;# 
  1584                           # 1662 "/opt/microchip/xc8/v1.12/include/pic18f26k22.h"
  1585                           TMR5 equ 0F4Fh ;# 
  1586                           # 1668 "/opt/microchip/xc8/v1.12/include/pic18f26k22.h"
  1587                           TMR5L equ 0F4Fh ;# 
  1588                           # 1687 "/opt/microchip/xc8/v1.12/include/pic18f26k22.h"
  1589                           TMR5H equ 0F50h ;# 
  1590                           # 1706 "/opt/microchip/xc8/v1.12/include/pic18f26k22.h"
  1591                           T4CON equ 0F51h ;# 
  1592                           # 1776 "/opt/microchip/xc8/v1.12/include/pic18f26k22.h"
  1593                           PR4 equ 0F52h ;# 
  1594                           # 1795 "/opt/microchip/xc8/v1.12/include/pic18f26k22.h"
  1595                           TMR4 equ 0F53h ;# 
  1596                           # 1814 "/opt/microchip/xc8/v1.12/include/pic18f26k22.h"
  1597                           CCP5CON equ 0F54h ;# 
  1598                           # 1877 "/opt/microchip/xc8/v1.12/include/pic18f26k22.h"
  1599                           CCPR5 equ 0F55h ;# 
  1600                           # 1883 "/opt/microchip/xc8/v1.12/include/pic18f26k22.h"
  1601                           CCPR5L equ 0F55h ;# 
  1602                           # 1902 "/opt/microchip/xc8/v1.12/include/pic18f26k22.h"
  1603                           CCPR5H equ 0F56h ;# 
  1604                           # 1921 "/opt/microchip/xc8/v1.12/include/pic18f26k22.h"
  1605                           CCP4CON equ 0F57h ;# 
  1606                           # 1984 "/opt/microchip/xc8/v1.12/include/pic18f26k22.h"
  1607                           CCPR4 equ 0F58h ;# 
  1608                           # 1990 "/opt/microchip/xc8/v1.12/include/pic18f26k22.h"
  1609                           CCPR4L equ 0F58h ;# 
  1610                           # 2009 "/opt/microchip/xc8/v1.12/include/pic18f26k22.h"
  1611                           CCPR4H equ 0F59h ;# 
  1612                           # 2028 "/opt/microchip/xc8/v1.12/include/pic18f26k22.h"
  1613                           PSTR3CON equ 0F5Ah ;# 
  1614                           # 2115 "/opt/microchip/xc8/v1.12/include/pic18f26k22.h"
  1615                           ECCP3AS equ 0F5Bh ;# 
  1616                           # 2120 "/opt/microchip/xc8/v1.12/include/pic18f26k22.h"
  1617                           CCP3AS equ 0F5Bh ;# 
  1618                           # 2356 "/opt/microchip/xc8/v1.12/include/pic18f26k22.h"
  1619                           PWM3CON equ 0F5Ch ;# 
  1620                           # 2425 "/opt/microchip/xc8/v1.12/include/pic18f26k22.h"
  1621                           CCP3CON equ 0F5Dh ;# 
  1622                           # 2506 "/opt/microchip/xc8/v1.12/include/pic18f26k22.h"
  1623                           CCPR3 equ 0F5Eh ;# 
  1624                           # 2512 "/opt/microchip/xc8/v1.12/include/pic18f26k22.h"
  1625                           CCPR3L equ 0F5Eh ;# 
  1626                           # 2531 "/opt/microchip/xc8/v1.12/include/pic18f26k22.h"
  1627                           CCPR3H equ 0F5Fh ;# 
  1628                           # 2550 "/opt/microchip/xc8/v1.12/include/pic18f26k22.h"
  1629                           SLRCON equ 0F60h ;# 
  1630                           # 2581 "/opt/microchip/xc8/v1.12/include/pic18f26k22.h"
  1631                           WPUB equ 0F61h ;# 
  1632                           # 2642 "/opt/microchip/xc8/v1.12/include/pic18f26k22.h"
  1633                           IOCB equ 0F62h ;# 
  1634                           # 2680 "/opt/microchip/xc8/v1.12/include/pic18f26k22.h"
  1635                           PSTR2CON equ 0F63h ;# 
  1636                           # 2855 "/opt/microchip/xc8/v1.12/include/pic18f26k22.h"
  1637                           ECCP2AS equ 0F64h ;# 
  1638                           # 2860 "/opt/microchip/xc8/v1.12/include/pic18f26k22.h"
  1639                           CCP2AS equ 0F64h ;# 
  1640                           # 3096 "/opt/microchip/xc8/v1.12/include/pic18f26k22.h"
  1641                           PWM2CON equ 0F65h ;# 
  1642                           # 3165 "/opt/microchip/xc8/v1.12/include/pic18f26k22.h"
  1643                           CCP2CON equ 0F66h ;# 
  1644                           # 3240 "/opt/microchip/xc8/v1.12/include/pic18f26k22.h"
  1645                           CCPR2 equ 0F67h ;# 
  1646                           # 3246 "/opt/microchip/xc8/v1.12/include/pic18f26k22.h"
  1647                           CCPR2L equ 0F67h ;# 
  1648                           # 3265 "/opt/microchip/xc8/v1.12/include/pic18f26k22.h"
  1649                           CCPR2H equ 0F68h ;# 
  1650                           # 3284 "/opt/microchip/xc8/v1.12/include/pic18f26k22.h"
  1651                           SSP2CON3 equ 0F69h ;# 
  1652                           # 3345 "/opt/microchip/xc8/v1.12/include/pic18f26k22.h"
  1653                           SSP2MSK equ 0F6Ah ;# 
  1654                           # 3406 "/opt/microchip/xc8/v1.12/include/pic18f26k22.h"
  1655                           SSP2CON2 equ 0F6Bh ;# 
  1656                           # 3583 "/opt/microchip/xc8/v1.12/include/pic18f26k22.h"
  1657                           SSP2CON1 equ 0F6Ch ;# 
  1658                           # 3723 "/opt/microchip/xc8/v1.12/include/pic18f26k22.h"
  1659                           SSP2STAT equ 0F6Dh ;# 
  1660                           # 4115 "/opt/microchip/xc8/v1.12/include/pic18f26k22.h"
  1661                           SSP2ADD equ 0F6Eh ;# 
  1662                           # 4205 "/opt/microchip/xc8/v1.12/include/pic18f26k22.h"
  1663                           SSP2BUF equ 0F6Fh ;# 
  1664                           # 4224 "/opt/microchip/xc8/v1.12/include/pic18f26k22.h"
  1665                           BAUDCON2 equ 0F70h ;# 
  1666                           # 4229 "/opt/microchip/xc8/v1.12/include/pic18f26k22.h"
  1667                           BAUD2CON equ 0F70h ;# 
  1668                           # 4531 "/opt/microchip/xc8/v1.12/include/pic18f26k22.h"
  1669                           RCSTA2 equ 0F71h ;# 
  1670                           # 4536 "/opt/microchip/xc8/v1.12/include/pic18f26k22.h"
  1671                           RC2STA equ 0F71h ;# 
  1672                           # 4822 "/opt/microchip/xc8/v1.12/include/pic18f26k22.h"
  1673                           TXSTA2 equ 0F72h ;# 
  1674                           # 4827 "/opt/microchip/xc8/v1.12/include/pic18f26k22.h"
  1675                           TX2STA equ 0F72h ;# 
  1676                           # 5077 "/opt/microchip/xc8/v1.12/include/pic18f26k22.h"
  1677                           TXREG2 equ 0F73h ;# 
  1678                           # 5082 "/opt/microchip/xc8/v1.12/include/pic18f26k22.h"
  1679                           TX2REG equ 0F73h ;# 
  1680                           # 5114 "/opt/microchip/xc8/v1.12/include/pic18f26k22.h"
  1681                           RCREG2 equ 0F74h ;# 
  1682                           # 5119 "/opt/microchip/xc8/v1.12/include/pic18f26k22.h"
  1683                           RC2REG equ 0F74h ;# 
  1684                           # 5151 "/opt/microchip/xc8/v1.12/include/pic18f26k22.h"
  1685                           SPBRG2 equ 0F75h ;# 
  1686                           # 5156 "/opt/microchip/xc8/v1.12/include/pic18f26k22.h"
  1687                           SP2BRG equ 0F75h ;# 
  1688                           # 5188 "/opt/microchip/xc8/v1.12/include/pic18f26k22.h"
  1689                           SPBRGH2 equ 0F76h ;# 
  1690                           # 5193 "/opt/microchip/xc8/v1.12/include/pic18f26k22.h"
  1691                           SP2BRGH equ 0F76h ;# 
  1692                           # 5225 "/opt/microchip/xc8/v1.12/include/pic18f26k22.h"
  1693                           CM2CON1 equ 0F77h ;# 
  1694                           # 5230 "/opt/microchip/xc8/v1.12/include/pic18f26k22.h"
  1695                           CM12CON equ 0F77h ;# 
  1696                           # 5346 "/opt/microchip/xc8/v1.12/include/pic18f26k22.h"
  1697                           CM2CON0 equ 0F78h ;# 
  1698                           # 5351 "/opt/microchip/xc8/v1.12/include/pic18f26k22.h"
  1699                           CM2CON equ 0F78h ;# 
  1700                           # 5625 "/opt/microchip/xc8/v1.12/include/pic18f26k22.h"
  1701                           CM1CON0 equ 0F79h ;# 
  1702                           # 5630 "/opt/microchip/xc8/v1.12/include/pic18f26k22.h"
  1703                           CM1CON equ 0F79h ;# 
  1704                           # 6046 "/opt/microchip/xc8/v1.12/include/pic18f26k22.h"
  1705                           PIE4 equ 0F7Ah ;# 
  1706                           # 6077 "/opt/microchip/xc8/v1.12/include/pic18f26k22.h"
  1707                           PIR4 equ 0F7Bh ;# 
  1708                           # 6108 "/opt/microchip/xc8/v1.12/include/pic18f26k22.h"
  1709                           IPR4 equ 0F7Ch ;# 
  1710                           # 6147 "/opt/microchip/xc8/v1.12/include/pic18f26k22.h"
  1711                           PIE5 equ 0F7Dh ;# 
  1712                           # 6178 "/opt/microchip/xc8/v1.12/include/pic18f26k22.h"
  1713                           PIR5 equ 0F7Eh ;# 
  1714                           # 6209 "/opt/microchip/xc8/v1.12/include/pic18f26k22.h"
  1715                           IPR5 equ 0F7Fh ;# 
  1716                           # 6257 "/opt/microchip/xc8/v1.12/include/pic18f26k22.h"
  1717                           PORTA equ 0F80h ;# 
  1718                           # 6549 "/opt/microchip/xc8/v1.12/include/pic18f26k22.h"
  1719                           PORTB equ 0F81h ;# 
  1720                           # 6921 "/opt/microchip/xc8/v1.12/include/pic18f26k22.h"
  1721                           PORTC equ 0F82h ;# 
  1722                           # 7254 "/opt/microchip/xc8/v1.12/include/pic18f26k22.h"
  1723                           PORTE equ 0F84h ;# 
  1724                           # 7523 "/opt/microchip/xc8/v1.12/include/pic18f26k22.h"
  1725                           LATA equ 0F89h ;# 
  1726                           # 7655 "/opt/microchip/xc8/v1.12/include/pic18f26k22.h"
  1727                           LATB equ 0F8Ah ;# 
  1728                           # 7787 "/opt/microchip/xc8/v1.12/include/pic18f26k22.h"
  1729                           LATC equ 0F8Bh ;# 
  1730                           # 7919 "/opt/microchip/xc8/v1.12/include/pic18f26k22.h"
  1731                           TRISA equ 0F92h ;# 
  1732                           # 7924 "/opt/microchip/xc8/v1.12/include/pic18f26k22.h"
  1733                           DDRA equ 0F92h ;# 
  1734                           # 8140 "/opt/microchip/xc8/v1.12/include/pic18f26k22.h"
  1735  0004CA                     __ptext0:
  1736                           opt subtitle "HI-TECH Software Omniscient Code Generator (Lite mode) build 49521"
  1737                           
  1738                           opt pagewidth 120
  1739                           
  1740  0000                     	__size_of_main	equ	__end_of_main-_main
  1741                           opt subtitle "HI-TECH Software Omniscient Code Generator (Lite mode) build 49521"
  1742  0004CA                     _main:; BSR set to: 15
  1743                           opt subtitle "HI-TECH Software Omniscient Code Generator (Lite mode) build 49521"
  1744                           
  1745                           opt pagewidth 120
  1746                           
  1747  0004CA                     l951:
  1748                           opt subtitle "HI-TECH Software Omniscient Code Generator (Lite mode) build 49521"
  1749  0004CA  ECE1  F002         	call	_SETUP_clock	;wreg free
  1750                           opt subtitle "HI-TECH Software Omniscient Code Generator (Lite mode) build 49521"
  1751                           
  1752  0004CE                     l953:
  1753                           opt subtitle "HI-TECH Software Omniscient Code Generator (Lite mode) build 49521"
  1754  0004CE  ECC5  F002         	call	_SETUP_io	;wreg free
  1755                           opt subtitle "HI-TECH Software Omniscient Code Generator (Lite mode) build 49521"
  1756                           
  1757  0004D2                     l955:
  1758                           opt subtitle "HI-TECH Software Omniscient Code Generator (Lite mode) build 49521"
  1759  0004D2  ECD4  F002         	call	_SETUP_i2c	;wreg free
  1760                           opt subtitle "HI-TECH Software Omniscient Code Generator (Lite mode) build 49521"
  1761                           
  1762  0004D6  EC8D  F002         	call	_SETUP_PWM	;wreg free
  1763                           opt subtitle "HI-TECH Software Omniscient Code Generator (Lite mode) build 49521"
  1764                           
  1765  0004DA                     l957:
  1766                           opt subtitle "HI-TECH Software Omniscient Code Generator (Lite mode) build 49521"
  1767  0004DA  8ED5               	bsf	((c:4053)),c,7	;volatile
  1768                           opt subtitle "HI-TECH Software Omniscient Code Generator (Lite mode) build 49521"
  1769                           
  1770  0004DC                     l959:
  1771                           opt subtitle "HI-TECH Software Omniscient Code Generator (Lite mode) build 49521"
  1772  0004DC  9292               	bcf	((c:3986)),c,1	;volatile
  1773                           opt subtitle "HI-TECH Software Omniscient Code Generator (Lite mode) build 49521"
  1774                           
  1775  0004DE                     l961:
  1776                           opt subtitle "HI-TECH Software Omniscient Code Generator (Lite mode) build 49521"
  1777  0004DE  8EF2               	bsf	((c:4082)),c,7	;volatile
  1778                           opt subtitle "HI-TECH Software Omniscient Code Generator (Lite mode) build 49521"
  1779                           
  1780  0004E0                     l963:
  1781                           opt subtitle "HI-TECH Software Omniscient Code Generator (Lite mode) build 49521"
  1782  0004E0  848A               	bsf	((c:3978)),c,2	;volatile
  1783  0004E2  D000               	goto	l965
  1784                           opt subtitle "HI-TECH Software Omniscient Code Generator (Lite mode) build 49521"
  1785                           
  1786                           opt pagewidth 120
  1787  0004E4                     l160:
  1788                           opt subtitle "HI-TECH Software Omniscient Code Generator (Lite mode) build 49521"
  1789                           
  1790  0004E4                     l965:
  1791                           opt subtitle "HI-TECH Software Omniscient Code Generator (Lite mode) build 49521"
  1792                           
  1793  0004E4  ECEA  F000         	call	_i2c_process	;wreg free
  1794                           opt subtitle "HI-TECH Software Omniscient Code Generator (Lite mode) build 49521"
  1795                           
  1796  0004E8                     l967:
  1797                           opt subtitle "HI-TECH Software Omniscient Code Generator (Lite mode) build 49521"
  1798  0004E8  0E15               	movlw	low(03415h)
  1799  0004EA  5C01               	subwf	((c:_kickAutoCount)),c,w	;volatile
  1800  0004EC  0E34               	movlw	high(03415h)
  1801  0004EE  5802               	subwfb	((c:_kickAutoCount+1)),c,w	;volatile
  1802  0004F0  0E00               	movlw	low highword(03415h)
  1803  0004F2  5803               	subwfb	((c:_kickAutoCount+2)),c,w	;volatile
  1804  0004F4  0E00               	movlw	high highword(03415h)
  1805  0004F6  5804               	subwfb	((c:_kickAutoCount+3)),c,w	;volatile
  1806  0004F8  B0D8               	btfsc	status,0
  1807  0004FA  D001               	goto	u11
  1808  0004FC  D001               	goto	u10
  1809  0004FE                     u11:
  1810  0004FE  D007               	goto	l161
  1811  000500                     u10:
  1812                           opt subtitle "HI-TECH Software Omniscient Code Generator (Lite mode) build 49521"
  1813  000500                     l969:
  1814  000500  5018               	movf	((c:_dataBuffer)),c,w	;volatile
  1815  000502  B4D8               	btfsc	status,2
  1816  000504  D001               	goto	u21
  1817  000506  D001               	goto	u20
  1818  000508                     u21:
  1819  000508  D002               	goto	l161
  1820  00050A                     u20:
  1821                           opt subtitle "HI-TECH Software Omniscient Code Generator (Lite mode) build 49521"
  1822                           
  1823  00050A                     l971:
  1824                           opt subtitle "HI-TECH Software Omniscient Code Generator (Lite mode) build 49521"
  1825  00050A  948A               	bcf	((c:3978)),c,2	;volatile
  1826                           opt subtitle "HI-TECH Software Omniscient Code Generator (Lite mode) build 49521"
  1827                           
  1828  00050C  D001               	goto	l162
  1829                           opt subtitle "HI-TECH Software Omniscient Code Generator (Lite mode) build 49521"
  1830                           
  1831  00050E                     l161:
  1832                           opt subtitle "HI-TECH Software Omniscient Code Generator (Lite mode) build 49521"
  1833                           
  1834                           opt pagewidth 120
  1835                           
  1836  00050E  848A               	bsf	((c:3978)),c,2	;volatile
  1837                           opt subtitle "HI-TECH Software Omniscient Code Generator (Lite mode) build 49521"
  1838                           
  1839  000510                     l162:
  1840                           opt subtitle "HI-TECH Software Omniscient Code Generator (Lite mode) build 49521"
  1841                           
  1842  000510  0004               clrwdt ;# 
  1843                           opt subtitle "HI-TECH Software Omniscient Code Generator (Lite mode) build 49521"
  1844  000512  D7E8               	goto	l965
  1845                           opt subtitle "HI-TECH Software Omniscient Code Generator (Lite mode) build 49521"
  1846                           
  1847  000514                     l163:
  1848                           opt subtitle "HI-TECH Software Omniscient Code Generator (Lite mode) build 49521"
  1849  000514  D7E7               	goto	l965
  1850                           opt subtitle "HI-TECH Software Omniscient Code Generator (Lite mode) build 49521"
  1851  000516                     l164:
  1852                           opt subtitle "HI-TECH Software Omniscient Code Generator (Lite mode) build 49521"
  1853                           
  1854                           opt pagewidth 120
  1855                           
  1856                           	opt lm
  1857  000516                     l165:
  1858                           opt subtitle "HI-TECH Software Omniscient Code Generator (Lite mode) build 49521"
  1859  000516  EFE8  F000         	goto	start
  1860                           opt subtitle "HI-TECH Software Omniscient Code Generator (Lite mode) build 49521"
  1861                           
  1862  00051A                     	__end_of_main:
  1863                           opt subtitle "HI-TECH Software Omniscient Code Generator (Lite mode) build 49521"
  1864                           
  1865                           opt pagewidth 120
  1866                           
  1867                           	opt lm
  1868                           
  1869                           	processor	18F26K22
  1870                           porta	equ	0F80h
  1871                           portb	equ	0F81h
  1872                           portc	equ	0F82h
  1873                           portd	equ	0F83h
  1874                           porte	equ	0F84h
  1875                           lata	equ	0F89h
  1876                           latb	equ	0F8Ah
  1877                           latc	equ	0F8Bh
  1878                           latd	equ	0F8Ch
  1879                           late	equ	0F8Dh
  1880                           trisa	equ	0F92h
  1881                           trisb	equ	0F93h
  1882                           trisc	equ	0F94h
  1883                           trisd	equ	0F95h
  1884                           trise	equ	0F96h
  1885                           pie1	equ	0F9Dh
  1886                           pir1	equ	0F9Eh
  1887                           ipr1	equ	0F9Fh
  1888                           pie2	equ	0FA0h
  1889                           pir2	equ	0FA1h
  1890                           ipr2	equ	0FA2h
  1891                           t3con	equ	0FB1h
  1892                           tmr3l	equ	0FB2h
  1893                           tmr3h	equ	0FB3h
  1894                           ccp1con	equ	0FBDh
  1895                           ccpr1l	equ	0FBEh
  1896                           ccpr1h	equ	0FBFh
  1897  0005C2                     __ptext1:
  1898                           opt subtitle "HI-TECH Software Omniscient Code Generator (Lite mode) build 49521"
  1899                           
  1900                           opt pagewidth 120
  1901                           
  1902  0000                     	__size_of_SETUP_clock	equ	__end_of_SETUP_clock-_SETUP_clock
  1903                           opt subtitle "HI-TECH Software Omniscient Code Generator (Lite mode) build 49521"
  1904  0005C2                     _SETUP_clock:
  1905                           opt subtitle "HI-TECH Software Omniscient Code Generator (Lite mode) build 49521"
  1906                           
  1907                           opt pagewidth 120
  1908  0005C2                     l907:
  1909                           opt subtitle "HI-TECH Software Omniscient Code Generator (Lite mode) build 49521"
  1910  0005C2  0EFC               	movlw	((0 & ((1<<2)-1))<<0)|not (((1<<2)-1)<<0)
  1911  0005C4  16D3               	andwf	((c:4051)),c	;volatile
  1912                           opt subtitle "HI-TECH Software Omniscient Code Generator (Lite mode) build 49521"
  1913                           
  1914  0005C6                     l909:
  1915                           opt subtitle "HI-TECH Software Omniscient Code Generator (Lite mode) build 49521"
  1916  0005C6  88D3               		bsf	((c:4051)),c, 4+0	;volatile
  1917  0005C8  8AD3               	bsf	((c:4051)),c, 4+1	;volatile
  1918  0005CA  8CD3               	bsf	((c:4051)),c, 4+2	;volatile
  1919                           opt subtitle "HI-TECH Software Omniscient Code Generator (Lite mode) build 49521"
  1920                           
  1921                           opt pagewidth 120
  1922  0005CC                     l911:
  1923                           opt subtitle "HI-TECH Software Omniscient Code Generator (Lite mode) build 49521"
  1924  0005CC  8C9B               	bsf	((c:3995)),c,6	;volatile
  1925                           opt subtitle "HI-TECH Software Omniscient Code Generator (Lite mode) build 49521"
  1926                           
  1927  0005CE                     l63:
  1928  0005CE  0012               	return
  1929                           opt subtitle "HI-TECH Software Omniscient Code Generator (Lite mode) build 49521"
  1930                           
  1931  0005D0                     	__end_of_SETUP_clock:
  1932                           opt subtitle "HI-TECH Software Omniscient Code Generator (Lite mode) build 49521"
  1933                           
  1934                           opt pagewidth 120
  1935                           
  1936                           	opt lm
  1937                           
  1938                           	processor	18F26K22
  1939                           porta	equ	0F80h
  1940                           portb	equ	0F81h
  1941                           portc	equ	0F82h
  1942                           portd	equ	0F83h
  1943                           porte	equ	0F84h
  1944                           lata	equ	0F89h
  1945                           latb	equ	0F8Ah
  1946                           latc	equ	0F8Bh
  1947                           latd	equ	0F8Ch
  1948                           late	equ	0F8Dh
  1949                           trisa	equ	0F92h
  1950                           trisb	equ	0F93h
  1951                           trisc	equ	0F94h
  1952                           trisd	equ	0F95h
  1953                           trise	equ	0F96h
  1954                           pie1	equ	0F9Dh
  1955                           pir1	equ	0F9Eh
  1956                           ipr1	equ	0F9Fh
  1957                           pie2	equ	0FA0h
  1958                           pir2	equ	0FA1h
  1959                           ipr2	equ	0FA2h
  1960                           t3con	equ	0FB1h
  1961                           tmr3l	equ	0FB2h
  1962                           tmr3h	equ	0FB3h
  1963                           ccp1con	equ	0FBDh
  1964                           ccpr1l	equ	0FBEh
  1965                           ccpr1h	equ	0FBFh
  1966  00058A                     __ptext2:
  1967                           opt subtitle "HI-TECH Software Omniscient Code Generator (Lite mode) build 49521"
  1968                           
  1969                           opt pagewidth 120
  1970                           
  1971  0000                     	__size_of_SETUP_io	equ	__end_of_SETUP_io-_SETUP_io
  1972                           opt subtitle "HI-TECH Software Omniscient Code Generator (Lite mode) build 49521"
  1973  00058A                     _SETUP_io:
  1974                           opt subtitle "HI-TECH Software Omniscient Code Generator (Lite mode) build 49521"
  1975                           
  1976                           opt pagewidth 120
  1977  00058A                     l913:
  1978                           opt subtitle "HI-TECH Software Omniscient Code Generator (Lite mode) build 49521"
  1979  00058A  0EC7               	movlw	(0C7h)&0ffh
  1980  00058C  010F               	movlb	15	; () banked
  1981  00058E  010F               	movlb	15	; () banked
  1982  000590  173A               	andwf	((3898))&0ffh	;volatile
  1983                           opt subtitle "HI-TECH Software Omniscient Code Generator (Lite mode) build 49521"
  1984                           
  1985  000592                     l915:; BSR set to: 15
  1986                           opt subtitle "HI-TECH Software Omniscient Code Generator (Lite mode) build 49521"
  1987                           
  1988  000592  010F               	movlb	15	; () banked
  1989  000594  010F               	movlb	15	; () banked
  1990  000596  9B39               	bcf	(0+(5/8)+(3897))&0ffh,(5)&7	;volatile
  1991                           opt subtitle "HI-TECH Software Omniscient Code Generator (Lite mode) build 49521"
  1992                           
  1993  000598                     l917:; BSR set to: 15
  1994                           opt subtitle "HI-TECH Software Omniscient Code Generator (Lite mode) build 49521"
  1995                           
  1996  000598  9093               	bcf	((c:3987)),c,0	;volatile
  1997                           opt subtitle "HI-TECH Software Omniscient Code Generator (Lite mode) build 49521"
  1998                           
  1999  00059A                     l919:; BSR set to: 15
  2000                           opt subtitle "HI-TECH Software Omniscient Code Generator (Lite mode) build 49521"
  2001                           
  2002  00059A  9693               	bcf	((c:3987)),c,3	;volatile
  2003                           opt subtitle "HI-TECH Software Omniscient Code Generator (Lite mode) build 49521"
  2004                           
  2005  00059C                     l921:; BSR set to: 15
  2006                           opt subtitle "HI-TECH Software Omniscient Code Generator (Lite mode) build 49521"
  2007                           
  2008  00059C  9893               	bcf	((c:3987)),c,4	;volatile
  2009                           opt subtitle "HI-TECH Software Omniscient Code Generator (Lite mode) build 49521"
  2010                           
  2011  00059E                     l923:; BSR set to: 15
  2012                           opt subtitle "HI-TECH Software Omniscient Code Generator (Lite mode) build 49521"
  2013                           
  2014  00059E  9A93               	bcf	((c:3987)),c,5	;volatile
  2015                           opt subtitle "HI-TECH Software Omniscient Code Generator (Lite mode) build 49521"
  2016                           
  2017  0005A0                     l925:; BSR set to: 15
  2018                           opt subtitle "HI-TECH Software Omniscient Code Generator (Lite mode) build 49521"
  2019                           
  2020  0005A0  9494               	bcf	((c:3988)),c,2	;volatile
  2021                           opt subtitle "HI-TECH Software Omniscient Code Generator (Lite mode) build 49521"
  2022                           
  2023  0005A2                     l927:; BSR set to: 15
  2024                           opt subtitle "HI-TECH Software Omniscient Code Generator (Lite mode) build 49521"
  2025                           
  2026  0005A2  9892               	bcf	((c:3986)),c,4	;volatile
  2027                           opt subtitle "HI-TECH Software Omniscient Code Generator (Lite mode) build 49521"
  2028                           
  2029  0005A4                     l929:; BSR set to: 15
  2030                           opt subtitle "HI-TECH Software Omniscient Code Generator (Lite mode) build 49521"
  2031                           
  2032  0005A4  9493               	bcf	((c:3987)),c,2	;volatile
  2033                           opt subtitle "HI-TECH Software Omniscient Code Generator (Lite mode) build 49521"
  2034                           
  2035  0005A6                     l66:; BSR set to: 15
  2036                           opt subtitle "HI-TECH Software Omniscient Code Generator (Lite mode) build 49521"
  2037  0005A6  0012               	return
  2038                           opt subtitle "HI-TECH Software Omniscient Code Generator (Lite mode) build 49521"
  2039                           
  2040  0005A8                     	__end_of_SETUP_io:
  2041                           opt subtitle "HI-TECH Software Omniscient Code Generator (Lite mode) build 49521"
  2042                           
  2043                           opt pagewidth 120
  2044                           
  2045                           	opt lm
  2046                           
  2047                           	processor	18F26K22
  2048                           porta	equ	0F80h
  2049                           portb	equ	0F81h
  2050                           portc	equ	0F82h
  2051                           portd	equ	0F83h
  2052                           porte	equ	0F84h
  2053                           lata	equ	0F89h
  2054                           latb	equ	0F8Ah
  2055                           latc	equ	0F8Bh
  2056                           latd	equ	0F8Ch
  2057                           late	equ	0F8Dh
  2058                           trisa	equ	0F92h
  2059                           trisb	equ	0F93h
  2060                           trisc	equ	0F94h
  2061                           trisd	equ	0F95h
  2062                           trise	equ	0F96h
  2063                           pie1	equ	0F9Dh
  2064                           pir1	equ	0F9Eh
  2065                           ipr1	equ	0F9Fh
  2066                           pie2	equ	0FA0h
  2067                           pir2	equ	0FA1h
  2068                           ipr2	equ	0FA2h
  2069                           t3con	equ	0FB1h
  2070                           tmr3l	equ	0FB2h
  2071                           tmr3h	equ	0FB3h
  2072                           ccp1con	equ	0FBDh
  2073                           ccpr1l	equ	0FBEh
  2074                           ccpr1h	equ	0FBFh
  2075  0005A8                     __ptext3:
  2076                           opt subtitle "HI-TECH Software Omniscient Code Generator (Lite mode) build 49521"
  2077                           
  2078                           opt pagewidth 120
  2079                           
  2080  0000                     	__size_of_SETUP_i2c	equ	__end_of_SETUP_i2c-_SETUP_i2c
  2081                           opt subtitle "HI-TECH Software Omniscient Code Generator (Lite mode) build 49521"
  2082  0005A8                     _SETUP_i2c:; BSR set to: 15
  2083                           opt subtitle "HI-TECH Software Omniscient Code Generator (Lite mode) build 49521"
  2084                           
  2085                           opt pagewidth 120
  2086                           
  2087  0005A8                     l931:
  2088                           opt subtitle "HI-TECH Software Omniscient Code Generator (Lite mode) build 49521"
  2089  0005A8  0E18               	movlw	(018h)&0ffh
  2090  0005AA  1294               	iorwf	((c:3988)),c	;volatile
  2091                           opt subtitle "HI-TECH Software Omniscient Code Generator (Lite mode) build 49521"
  2092                           
  2093  0005AC                     l933:
  2094                           opt subtitle "HI-TECH Software Omniscient Code Generator (Lite mode) build 49521"
  2095  0005AC  0E94               	movlw	low(094h)
  2096  0005AE  6EC8               	movwf	((c:4040)),c	;volatile
  2097                           opt subtitle "HI-TECH Software Omniscient Code Generator (Lite mode) build 49521"
  2098                           
  2099  0005B0                     l935:
  2100                           opt subtitle "HI-TECH Software Omniscient Code Generator (Lite mode) build 49521"
  2101  0005B0  8AC6               	bsf	((c:4038)),c,5	;volatile
  2102                           opt subtitle "HI-TECH Software Omniscient Code Generator (Lite mode) build 49521"
  2103                           
  2104  0005B2                     l937:
  2105                           opt subtitle "HI-TECH Software Omniscient Code Generator (Lite mode) build 49521"
  2106  0005B2  50C6               	movf	((c:4038)),c,w	;volatile
  2107  0005B4  0BF0               	andlw	not (((1<<4)-1)<<0)
  2108  0005B6  0906               	iorlw	(06h & ((1<<4)-1))<<0
  2109  0005B8  6EC6               	movwf	((c:4038)),c	;volatile
  2110                           opt subtitle "HI-TECH Software Omniscient Code Generator (Lite mode) build 49521"
  2111                           
  2112  0005BA                     l939:
  2113                           opt subtitle "HI-TECH Software Omniscient Code Generator (Lite mode) build 49521"
  2114  0005BA  80C5               	bsf	((c:4037)),c,0	;volatile
  2115                           opt subtitle "HI-TECH Software Omniscient Code Generator (Lite mode) build 49521"
  2116                           
  2117  0005BC                     l941:
  2118                           opt subtitle "HI-TECH Software Omniscient Code Generator (Lite mode) build 49521"
  2119  0005BC  8ED0               	bsf	((c:4048)),c,7	;volatile
  2120                           opt subtitle "HI-TECH Software Omniscient Code Generator (Lite mode) build 49521"
  2121                           
  2122  0005BE                     l943:
  2123                           opt subtitle "HI-TECH Software Omniscient Code Generator (Lite mode) build 49521"
  2124  0005BE  969D               	bcf	((c:3997)),c,3	;volatile
  2125                           opt subtitle "HI-TECH Software Omniscient Code Generator (Lite mode) build 49521"
  2126                           
  2127  0005C0                     l69:
  2128  0005C0  0012               	return
  2129                           opt subtitle "HI-TECH Software Omniscient Code Generator (Lite mode) build 49521"
  2130                           
  2131  0005C2                     	__end_of_SETUP_i2c:
  2132                           opt subtitle "HI-TECH Software Omniscient Code Generator (Lite mode) build 49521"
  2133                           
  2134                           opt pagewidth 120
  2135                           
  2136                           	opt lm
  2137                           
  2138                           	processor	18F26K22
  2139                           porta	equ	0F80h
  2140                           portb	equ	0F81h
  2141                           portc	equ	0F82h
  2142                           portd	equ	0F83h
  2143                           porte	equ	0F84h
  2144                           lata	equ	0F89h
  2145                           latb	equ	0F8Ah
  2146                           latc	equ	0F8Bh
  2147                           latd	equ	0F8Ch
  2148                           late	equ	0F8Dh
  2149                           trisa	equ	0F92h
  2150                           trisb	equ	0F93h
  2151                           trisc	equ	0F94h
  2152                           trisd	equ	0F95h
  2153                           trise	equ	0F96h
  2154                           pie1	equ	0F9Dh
  2155                           pir1	equ	0F9Eh
  2156                           ipr1	equ	0F9Fh
  2157                           pie2	equ	0FA0h
  2158                           pir2	equ	0FA1h
  2159                           ipr2	equ	0FA2h
  2160                           t3con	equ	0FB1h
  2161                           tmr3l	equ	0FB2h
  2162                           tmr3h	equ	0FB3h
  2163                           ccp1con	equ	0FBDh
  2164                           ccpr1l	equ	0FBEh
  2165                           ccpr1h	equ	0FBFh
  2166  00051A                     __ptext4:
  2167                           opt subtitle "HI-TECH Software Omniscient Code Generator (Lite mode) build 49521"
  2168                           
  2169                           opt pagewidth 120
  2170                           
  2171  0000                     	__size_of_SETUP_PWM	equ	__end_of_SETUP_PWM-_SETUP_PWM
  2172                           opt subtitle "HI-TECH Software Omniscient Code Generator (Lite mode) build 49521"
  2173  00051A                     _SETUP_PWM:
  2174                           opt subtitle "HI-TECH Software Omniscient Code Generator (Lite mode) build 49521"
  2175                           
  2176                           opt pagewidth 120
  2177  00051A                     l947:
  2178                           opt subtitle "HI-TECH Software Omniscient Code Generator (Lite mode) build 49521"
  2179  00051A  8AF2               	bsf	((c:4082)),c,5	;volatile
  2180                           opt subtitle "HI-TECH Software Omniscient Code Generator (Lite mode) build 49521"
  2181                           
  2182  00051C  84F1               	bsf	((c:4081)),c,2	;volatile
  2183                           opt subtitle "HI-TECH Software Omniscient Code Generator (Lite mode) build 49521"
  2184                           
  2185  00051E                     l949:
  2186                           opt subtitle "HI-TECH Software Omniscient Code Generator (Lite mode) build 49521"
  2187  00051E  0E40               	movlw	low(040h)
  2188  000520  6ED5               	movwf	((c:4053)),c	;volatile
  2189                           opt subtitle "HI-TECH Software Omniscient Code Generator (Lite mode) build 49521"
  2190                           
  2191  000522  0E8A               	movlw	low(08Ah)
  2192  000524  6ED6               	movwf	((c:4054)),c	;volatile
  2193                           opt subtitle "HI-TECH Software Omniscient Code Generator (Lite mode) build 49521"
  2194                           
  2195  000526  0E00               	movlw	high(03Eh)
  2196  000528  6E3E               	movwf	((c:_ESC_PWM_REG+1)),c	;volatile
  2197  00052A  0E3E               	movlw	low(03Eh)
  2198  00052C  6E3D               	movwf	((c:_ESC_PWM_REG)),c	;volatile
  2199                           opt subtitle "HI-TECH Software Omniscient Code Generator (Lite mode) build 49521"
  2200                           
  2201  00052E  0E00               	movlw	high(061h)
  2202  000530  6E38               	movwf	((c:_AIL_PWM_REG+1)),c	;volatile
  2203  000532  0E61               	movlw	low(061h)
  2204  000534  6E37               	movwf	((c:_AIL_PWM_REG)),c	;volatile
  2205                           opt subtitle "HI-TECH Software Omniscient Code Generator (Lite mode) build 49521"
  2206                           
  2207  000536  0E00               	movlw	high(061h)
  2208  000538  6E3C               	movwf	((c:_ELEV_PWM_REG+1)),c	;volatile
  2209  00053A  0E61               	movlw	low(061h)
  2210  00053C  6E3B               	movwf	((c:_ELEV_PWM_REG)),c	;volatile
  2211                           opt subtitle "HI-TECH Software Omniscient Code Generator (Lite mode) build 49521"
  2212                           
  2213  00053E  0E00               	movlw	high(061h)
  2214  000540  6E42               	movwf	((c:_RUDD_PWM_REG+1)),c	;volatile
  2215  000542  0E61               	movlw	low(061h)
  2216  000544  6E41               	movwf	((c:_RUDD_PWM_REG)),c	;volatile
  2217                           opt subtitle "HI-TECH Software Omniscient Code Generator (Lite mode) build 49521"
  2218                           
  2219  000546  0E00               	movlw	high(061h)
  2220  000548  6E40               	movwf	((c:_GEAR_PWM_REG+1)),c	;volatile
  2221  00054A  0E61               	movlw	low(061h)
  2222  00054C  6E3F               	movwf	((c:_GEAR_PWM_REG)),c	;volatile
  2223                           opt subtitle "HI-TECH Software Omniscient Code Generator (Lite mode) build 49521"
  2224                           
  2225  00054E  0E00               	movlw	high(061h)
  2226  000550  6E3A               	movwf	((c:_AUX_PWM_REG+1)),c	;volatile
  2227  000552  0E61               	movlw	low(061h)
  2228  000554  6E39               	movwf	((c:_AUX_PWM_REG)),c	;volatile
  2229                           opt subtitle "HI-TECH Software Omniscient Code Generator (Lite mode) build 49521"
  2230                           
  2231  000556                     l75:
  2232  000556  0012               	return
  2233                           opt subtitle "HI-TECH Software Omniscient Code Generator (Lite mode) build 49521"
  2234                           
  2235  000558                     	__end_of_SETUP_PWM:
  2236                           opt subtitle "HI-TECH Software Omniscient Code Generator (Lite mode) build 49521"
  2237                           
  2238                           opt pagewidth 120
  2239                           
  2240                           	opt lm
  2241                           
  2242                           	processor	18F26K22
  2243                           porta	equ	0F80h
  2244                           portb	equ	0F81h
  2245                           portc	equ	0F82h
  2246                           portd	equ	0F83h
  2247                           porte	equ	0F84h
  2248                           lata	equ	0F89h
  2249                           latb	equ	0F8Ah
  2250                           latc	equ	0F8Bh
  2251                           latd	equ	0F8Ch
  2252                           late	equ	0F8Dh
  2253                           trisa	equ	0F92h
  2254                           trisb	equ	0F93h
  2255                           trisc	equ	0F94h
  2256                           trisd	equ	0F95h
  2257                           trise	equ	0F96h
  2258                           pie1	equ	0F9Dh
  2259                           pir1	equ	0F9Eh
  2260                           ipr1	equ	0F9Fh
  2261                           pie2	equ	0FA0h
  2262                           pir2	equ	0FA1h
  2263                           ipr2	equ	0FA2h
  2264                           t3con	equ	0FB1h
  2265                           tmr3l	equ	0FB2h
  2266                           tmr3h	equ	0FB3h
  2267                           ccp1con	equ	0FBDh
  2268                           ccpr1l	equ	0FBEh
  2269                           ccpr1h	equ	0FBFh
  2270  0001D4                     __ptext5:
  2271                           opt subtitle "HI-TECH Software Omniscient Code Generator (Lite mode) build 49521"
  2272                           
  2273                           opt pagewidth 120
  2274                           
  2275  0000                     	__size_of_i2c_process	equ	__end_of_i2c_process-_i2c_process
  2276                           opt subtitle "HI-TECH Software Omniscient Code Generator (Lite mode) build 49521"
  2277  0001D4                     _i2c_process:
  2278                           opt subtitle "HI-TECH Software Omniscient Code Generator (Lite mode) build 49521"
  2279                           
  2280                           opt pagewidth 120
  2281  0001D4                     l973:
  2282                           opt subtitle "HI-TECH Software Omniscient Code Generator (Lite mode) build 49521"
  2283                           
  2284                           opt pagewidth 120
  2285  0001D4  A69E               	btfss	((c:3998)),c,3	;volatile
  2286  0001D6  D001               	goto	u31
  2287  0001D8  D001               	goto	u30
  2288  0001DA                     u31:
  2289  0001DA  D0A4               	goto	l1041
  2290  0001DC                     u30:
  2291                           opt subtitle "HI-TECH Software Omniscient Code Generator (Lite mode) build 49521"
  2292                           
  2293  0001DC                     l975:
  2294                           opt subtitle "HI-TECH Software Omniscient Code Generator (Lite mode) build 49521"
  2295                           
  2296  0001DC  969E               	bcf	((c:3998)),c,3	;volatile
  2297                           opt subtitle "HI-TECH Software Omniscient Code Generator (Lite mode) build 49521"
  2298                           
  2299                           opt pagewidth 120
  2300  0001DE  B4C7               	btfsc	((c:4039)),c,2	;volatile
  2301  0001E0  D001               	goto	u41
  2302  0001E2  D001               	goto	u40
  2303  0001E4                     u41:
  2304  0001E4  D012               	goto	l184
  2305  0001E6                     u40:
  2306                           opt subtitle "HI-TECH Software Omniscient Code Generator (Lite mode) build 49521"
  2307  0001E6                     l977:
  2308                           opt subtitle "HI-TECH Software Omniscient Code Generator (Lite mode) build 49521"
  2309  0001E6  BAC7               	btfsc	((c:4039)),c,5	;volatile
  2310  0001E8  D001               	goto	u51
  2311  0001EA  D001               	goto	u50
  2312  0001EC                     u51:
  2313  0001EC  D00E               	goto	l184
  2314  0001EE                     u50:
  2315                           opt subtitle "HI-TECH Software Omniscient Code Generator (Lite mode) build 49521"
  2316                           
  2317  0001EE                     l979:
  2318                           opt subtitle "HI-TECH Software Omniscient Code Generator (Lite mode) build 49521"
  2319                           
  2320  0001EE  0E00               	movlw	low(0)
  2321  0001F0  6E13               	movwf	((c:_I2C_FSM)),c	;volatile
  2322                           opt subtitle "HI-TECH Software Omniscient Code Generator (Lite mode) build 49521"
  2323                           
  2324  0001F2                     l981:
  2325                           opt subtitle "HI-TECH Software Omniscient Code Generator (Lite mode) build 49521"
  2326  0001F2  CFC9 F017          	movff	(c:4041),(c:i2c_process@buffer)	;volatile
  2327                           opt subtitle "HI-TECH Software Omniscient Code Generator (Lite mode) build 49521"
  2328                           
  2329  0001F6                     l983:
  2330                           opt subtitle "HI-TECH Software Omniscient Code Generator (Lite mode) build 49521"
  2331  0001F6  5017               	movf	((c:i2c_process@buffer)),c,w
  2332  0001F8  0A94               	xorlw	148
  2333                           opt subtitle "HI-TECH Software Omniscient Code Generator (Lite mode) build 49521"
  2334  0001FA  A4D8               	btfss	status,2
  2335  0001FC  D001               	goto	u61
  2336  0001FE  D001               	goto	u60
  2337  000200                     u61:
  2338  000200  D08F               	goto	l186
  2339  000202                     u60:
  2340                           opt subtitle "HI-TECH Software Omniscient Code Generator (Lite mode) build 49521"
  2341                           
  2342  000202                     l985:
  2343                           opt subtitle "HI-TECH Software Omniscient Code Generator (Lite mode) build 49521"
  2344                           
  2345  000202  0E01               	movlw	low(01h)
  2346  000204  6E14               	movwf	((c:_RECEIVING_FROM_MASTER)),c	;volatile
  2347  000206  D08C               	goto	l186
  2348                           opt subtitle "HI-TECH Software Omniscient Code Generator (Lite mode) build 49521"
  2349                           
  2350  000208                     l185:
  2351                           opt subtitle "HI-TECH Software Omniscient Code Generator (Lite mode) build 49521"
  2352                           
  2353                           opt pagewidth 120
  2354  000208  D08B               	goto	l186
  2355                           opt subtitle "HI-TECH Software Omniscient Code Generator (Lite mode) build 49521"
  2356                           
  2357  00020A                     l184:
  2358                           opt subtitle "HI-TECH Software Omniscient Code Generator (Lite mode) build 49521"
  2359                           
  2360  00020A  A4C7               	btfss	((c:4039)),c,2	;volatile
  2361  00020C  D001               	goto	u71
  2362  00020E  D001               	goto	u70
  2363  000210                     u71:
  2364  000210  D026               	goto	l187
  2365  000212                     u70:
  2366                           opt subtitle "HI-TECH Software Omniscient Code Generator (Lite mode) build 49521"
  2367  000212                     l987:
  2368                           opt subtitle "HI-TECH Software Omniscient Code Generator (Lite mode) build 49521"
  2369  000212  BAC7               	btfsc	((c:4039)),c,5	;volatile
  2370  000214  D001               	goto	u81
  2371  000216  D001               	goto	u80
  2372  000218                     u81:
  2373  000218  D022               	goto	l187
  2374  00021A                     u80:
  2375                           opt subtitle "HI-TECH Software Omniscient Code Generator (Lite mode) build 49521"
  2376  00021A                     l989:
  2377  00021A  5014               	movf	((c:_RECEIVING_FROM_MASTER)),c,w	;volatile
  2378  00021C  B4D8               	btfsc	status,2
  2379  00021E  D001               	goto	u91
  2380  000220  D001               	goto	u90
  2381  000222                     u91:
  2382  000222  D01D               	goto	l187
  2383  000224                     u90:
  2384                           opt subtitle "HI-TECH Software Omniscient Code Generator (Lite mode) build 49521"
  2385                           
  2386  000224                     l991:
  2387                           opt subtitle "HI-TECH Software Omniscient Code Generator (Lite mode) build 49521"
  2388                           
  2389  000224  CFC9 F017          	movff	(c:4041),(c:i2c_process@buffer)	;volatile
  2390                           opt subtitle "HI-TECH Software Omniscient Code Generator (Lite mode) build 49521"
  2391                           
  2392  000228                     l993:
  2393                           opt subtitle "HI-TECH Software Omniscient Code Generator (Lite mode) build 49521"
  2394  000228  5015               	movf	((c:_checksum)),c,w	;volatile
  2395  00022A  EE20  F01F         	lfsr	2,(c:_dataBuffer)+07h	;volatile
  2396  00022E  62DF               	cpfseq	indf2
  2397  000230  D001               	goto	u101
  2398  000232  D001               	goto	u100
  2399  000234                     u101:
  2400  000234  D00D               	goto	l997
  2401  000236                     u100:
  2402                           opt subtitle "HI-TECH Software Omniscient Code Generator (Lite mode) build 49521"
  2403                           
  2404  000236                     l995:
  2405                           opt subtitle "HI-TECH Software Omniscient Code Generator (Lite mode) build 49521"
  2406                           
  2407  000236  0E00               	movlw	low(0)
  2408  000238  6E01               	movwf	((c:_kickAutoCount)),c	;volatile
  2409  00023A  0E00               	movlw	high(0)
  2410  00023C  6E02               	movwf	((c:_kickAutoCount+1)),c	;volatile
  2411  00023E  0E00               	movlw	low highword(0)
  2412  000240  6E03               	movwf	((c:_kickAutoCount+2)),c	;volatile
  2413  000242  0E00               	movlw	high highword(0)
  2414  000244  6E04               	movwf	((c:_kickAutoCount+3)),c	;volatile
  2415                           opt subtitle "HI-TECH Software Omniscient Code Generator (Lite mode) build 49521"
  2416                           
  2417  000246  0E01               	movlw	low(01h)
  2418  000248  6E16               	movwf	((c:_data_updated)),c	;volatile
  2419                           opt subtitle "HI-TECH Software Omniscient Code Generator (Lite mode) build 49521"
  2420                           
  2421  00024A  0E41               	movlw	low(041h)
  2422  00024C  6EC9               	movwf	((c:4041)),c	;volatile
  2423                           opt subtitle "HI-TECH Software Omniscient Code Generator (Lite mode) build 49521"
  2424                           
  2425  00024E  D002               	goto	l189
  2426                           opt subtitle "HI-TECH Software Omniscient Code Generator (Lite mode) build 49521"
  2427                           
  2428  000250                     l188:
  2429                           opt subtitle "HI-TECH Software Omniscient Code Generator (Lite mode) build 49521"
  2430                           
  2431  000250                     l997:
  2432                           opt subtitle "HI-TECH Software Omniscient Code Generator (Lite mode) build 49521"
  2433                           
  2434                           opt pagewidth 120
  2435  000250  0E4E               	movlw	low(04Eh)
  2436  000252  6EC9               	movwf	((c:4041)),c	;volatile
  2437                           opt subtitle "HI-TECH Software Omniscient Code Generator (Lite mode) build 49521"
  2438                           
  2439  000254                     l189:
  2440                           opt subtitle "HI-TECH Software Omniscient Code Generator (Lite mode) build 49521"
  2441                           
  2442                           opt pagewidth 120
  2443  000254  0E00               	movlw	low(0)
  2444  000256  6E14               	movwf	((c:_RECEIVING_FROM_MASTER)),c	;volatile
  2445                           opt subtitle "HI-TECH Software Omniscient Code Generator (Lite mode) build 49521"
  2446                           
  2447  000258  0E09               	movlw	low(09h)
  2448  00025A  6E13               	movwf	((c:_I2C_FSM)),c	;volatile
  2449                           opt subtitle "HI-TECH Software Omniscient Code Generator (Lite mode) build 49521"
  2450                           
  2451  00025C  D061               	goto	l186
  2452                           opt subtitle "HI-TECH Software Omniscient Code Generator (Lite mode) build 49521"
  2453                           
  2454  00025E                     l187:
  2455                           opt subtitle "HI-TECH Software Omniscient Code Generator (Lite mode) build 49521"
  2456                           
  2457  00025E  AAC7               	btfss	((c:4039)),c,5	;volatile
  2458  000260  D001               	goto	u111
  2459  000262  D001               	goto	u110
  2460  000264                     u111:
  2461  000264  D05D               	goto	l186
  2462  000266                     u110:
  2463                           opt subtitle "HI-TECH Software Omniscient Code Generator (Lite mode) build 49521"
  2464  000266                     l999:
  2465  000266  5014               	movf	((c:_RECEIVING_FROM_MASTER)),c,w	;volatile
  2466  000268  B4D8               	btfsc	status,2
  2467  00026A  D001               	goto	u121
  2468  00026C  D001               	goto	u120
  2469  00026E                     u121:
  2470  00026E  D058               	goto	l186
  2471  000270                     u120:
  2472  000270  D03B               	goto	l1039
  2473                           opt subtitle "HI-TECH Software Omniscient Code Generator (Lite mode) build 49521"
  2474                           
  2475  000272                     l1001:
  2476                           opt subtitle "HI-TECH Software Omniscient Code Generator (Lite mode) build 49521"
  2477                           
  2478  000272  D03A               	goto	l1039
  2479                           opt subtitle "HI-TECH Software Omniscient Code Generator (Lite mode) build 49521"
  2480                           
  2481                           opt pagewidth 120
  2482                           
  2483  000274                     l193:
  2484                           opt subtitle "HI-TECH Software Omniscient Code Generator (Lite mode) build 49521"
  2485                           
  2486  000274                     l1003:
  2487                           opt subtitle "HI-TECH Software Omniscient Code Generator (Lite mode) build 49521"
  2488  000274  0E00               	movlw	low(0)
  2489  000276  6E15               	movwf	((c:_checksum)),c	;volatile
  2490                           opt subtitle "HI-TECH Software Omniscient Code Generator (Lite mode) build 49521"
  2491                           
  2492  000278                     l1005:
  2493                           opt subtitle "HI-TECH Software Omniscient Code Generator (Lite mode) build 49521"
  2494  000278  CFC9 F018          	movff	(c:4041),(c:_dataBuffer)	;volatile
  2495                           opt subtitle "HI-TECH Software Omniscient Code Generator (Lite mode) build 49521"
  2496                           
  2497  00027C                     l1007:
  2498                           opt subtitle "HI-TECH Software Omniscient Code Generator (Lite mode) build 49521"
  2499  00027C  5018               	movf	((c:_dataBuffer)),c,w	;volatile
  2500  00027E  1A15               	xorwf	((c:_checksum)),c	;volatile
  2501                           opt subtitle "HI-TECH Software Omniscient Code Generator (Lite mode) build 49521"
  2502                           
  2503  000280                     l1009:
  2504                           opt subtitle "HI-TECH Software Omniscient Code Generator (Lite mode) build 49521"
  2505  000280  0E02               	movlw	low(02h)
  2506  000282  6E13               	movwf	((c:_I2C_FSM)),c	;volatile
  2507                           opt subtitle "HI-TECH Software Omniscient Code Generator (Lite mode) build 49521"
  2508                           
  2509  000284  D04D               	goto	l186
  2510                           opt subtitle "HI-TECH Software Omniscient Code Generator (Lite mode) build 49521"
  2511                           
  2512                           opt pagewidth 120
  2513  000286                     l195:
  2514                           opt subtitle "HI-TECH Software Omniscient Code Generator (Lite mode) build 49521"
  2515                           
  2516  000286  CFC9 F019          	movff	(c:4041),0+((c:_dataBuffer)+01h)	;volatile
  2517                           opt subtitle "HI-TECH Software Omniscient Code Generator (Lite mode) build 49521"
  2518                           
  2519  00028A                     l1011:
  2520                           opt subtitle "HI-TECH Software Omniscient Code Generator (Lite mode) build 49521"
  2521  00028A  5019               	movf	(0+((c:_dataBuffer)+01h)),c,w	;volatile
  2522  00028C  1A15               	xorwf	((c:_checksum)),c	;volatile
  2523                           opt subtitle "HI-TECH Software Omniscient Code Generator (Lite mode) build 49521"
  2524                           
  2525  00028E                     l1013:
  2526                           opt subtitle "HI-TECH Software Omniscient Code Generator (Lite mode) build 49521"
  2527  00028E  0E03               	movlw	low(03h)
  2528  000290  6E13               	movwf	((c:_I2C_FSM)),c	;volatile
  2529                           opt subtitle "HI-TECH Software Omniscient Code Generator (Lite mode) build 49521"
  2530                           
  2531  000292  D046               	goto	l186
  2532                           opt subtitle "HI-TECH Software Omniscient Code Generator (Lite mode) build 49521"
  2533                           
  2534                           opt pagewidth 120
  2535  000294                     l196:
  2536                           opt subtitle "HI-TECH Software Omniscient Code Generator (Lite mode) build 49521"
  2537                           
  2538  000294  CFC9 F01A          	movff	(c:4041),0+((c:_dataBuffer)+02h)	;volatile
  2539                           opt subtitle "HI-TECH Software Omniscient Code Generator (Lite mode) build 49521"
  2540                           
  2541  000298                     l1015:
  2542                           opt subtitle "HI-TECH Software Omniscient Code Generator (Lite mode) build 49521"
  2543  000298  501A               	movf	(0+((c:_dataBuffer)+02h)),c,w	;volatile
  2544  00029A  1A15               	xorwf	((c:_checksum)),c	;volatile
  2545                           opt subtitle "HI-TECH Software Omniscient Code Generator (Lite mode) build 49521"
  2546                           
  2547  00029C                     l1017:
  2548                           opt subtitle "HI-TECH Software Omniscient Code Generator (Lite mode) build 49521"
  2549  00029C  0E04               	movlw	low(04h)
  2550  00029E  6E13               	movwf	((c:_I2C_FSM)),c	;volatile
  2551                           opt subtitle "HI-TECH Software Omniscient Code Generator (Lite mode) build 49521"
  2552                           
  2553  0002A0  D03F               	goto	l186
  2554                           opt subtitle "HI-TECH Software Omniscient Code Generator (Lite mode) build 49521"
  2555                           
  2556                           opt pagewidth 120
  2557  0002A2                     l197:
  2558                           opt subtitle "HI-TECH Software Omniscient Code Generator (Lite mode) build 49521"
  2559                           
  2560  0002A2  CFC9 F01B          	movff	(c:4041),0+((c:_dataBuffer)+03h)	;volatile
  2561                           opt subtitle "HI-TECH Software Omniscient Code Generator (Lite mode) build 49521"
  2562                           
  2563  0002A6                     l1019:
  2564                           opt subtitle "HI-TECH Software Omniscient Code Generator (Lite mode) build 49521"
  2565  0002A6  501B               	movf	(0+((c:_dataBuffer)+03h)),c,w	;volatile
  2566  0002A8  1A15               	xorwf	((c:_checksum)),c	;volatile
  2567                           opt subtitle "HI-TECH Software Omniscient Code Generator (Lite mode) build 49521"
  2568                           
  2569  0002AA                     l1021:
  2570                           opt subtitle "HI-TECH Software Omniscient Code Generator (Lite mode) build 49521"
  2571  0002AA  0E05               	movlw	low(05h)
  2572  0002AC  6E13               	movwf	((c:_I2C_FSM)),c	;volatile
  2573                           opt subtitle "HI-TECH Software Omniscient Code Generator (Lite mode) build 49521"
  2574                           
  2575  0002AE  D038               	goto	l186
  2576                           opt subtitle "HI-TECH Software Omniscient Code Generator (Lite mode) build 49521"
  2577                           
  2578                           opt pagewidth 120
  2579  0002B0                     l198:
  2580                           opt subtitle "HI-TECH Software Omniscient Code Generator (Lite mode) build 49521"
  2581                           
  2582  0002B0  CFC9 F01C          	movff	(c:4041),0+((c:_dataBuffer)+04h)	;volatile
  2583                           opt subtitle "HI-TECH Software Omniscient Code Generator (Lite mode) build 49521"
  2584                           
  2585  0002B4                     l1023:
  2586                           opt subtitle "HI-TECH Software Omniscient Code Generator (Lite mode) build 49521"
  2587  0002B4  501C               	movf	(0+((c:_dataBuffer)+04h)),c,w	;volatile
  2588  0002B6  1A15               	xorwf	((c:_checksum)),c	;volatile
  2589                           opt subtitle "HI-TECH Software Omniscient Code Generator (Lite mode) build 49521"
  2590                           
  2591  0002B8                     l1025:
  2592                           opt subtitle "HI-TECH Software Omniscient Code Generator (Lite mode) build 49521"
  2593  0002B8  0E06               	movlw	low(06h)
  2594  0002BA  6E13               	movwf	((c:_I2C_FSM)),c	;volatile
  2595                           opt subtitle "HI-TECH Software Omniscient Code Generator (Lite mode) build 49521"
  2596                           
  2597  0002BC  D031               	goto	l186
  2598                           opt subtitle "HI-TECH Software Omniscient Code Generator (Lite mode) build 49521"
  2599                           
  2600                           opt pagewidth 120
  2601  0002BE                     l199:
  2602                           opt subtitle "HI-TECH Software Omniscient Code Generator (Lite mode) build 49521"
  2603                           
  2604  0002BE  CFC9 F01D          	movff	(c:4041),0+((c:_dataBuffer)+05h)	;volatile
  2605                           opt subtitle "HI-TECH Software Omniscient Code Generator (Lite mode) build 49521"
  2606                           
  2607  0002C2                     l1027:
  2608                           opt subtitle "HI-TECH Software Omniscient Code Generator (Lite mode) build 49521"
  2609  0002C2  501D               	movf	(0+((c:_dataBuffer)+05h)),c,w	;volatile
  2610  0002C4  1A15               	xorwf	((c:_checksum)),c	;volatile
  2611                           opt subtitle "HI-TECH Software Omniscient Code Generator (Lite mode) build 49521"
  2612                           
  2613  0002C6                     l1029:
  2614                           opt subtitle "HI-TECH Software Omniscient Code Generator (Lite mode) build 49521"
  2615  0002C6  0E07               	movlw	low(07h)
  2616  0002C8  6E13               	movwf	((c:_I2C_FSM)),c	;volatile
  2617                           opt subtitle "HI-TECH Software Omniscient Code Generator (Lite mode) build 49521"
  2618                           
  2619  0002CA  D02A               	goto	l186
  2620                           opt subtitle "HI-TECH Software Omniscient Code Generator (Lite mode) build 49521"
  2621                           
  2622                           opt pagewidth 120
  2623  0002CC                     l200:
  2624                           opt subtitle "HI-TECH Software Omniscient Code Generator (Lite mode) build 49521"
  2625                           
  2626  0002CC  CFC9 F01E          	movff	(c:4041),0+((c:_dataBuffer)+06h)	;volatile
  2627                           opt subtitle "HI-TECH Software Omniscient Code Generator (Lite mode) build 49521"
  2628                           
  2629  0002D0                     l1031:
  2630                           opt subtitle "HI-TECH Software Omniscient Code Generator (Lite mode) build 49521"
  2631  0002D0  501E               	movf	(0+((c:_dataBuffer)+06h)),c,w	;volatile
  2632  0002D2  1A15               	xorwf	((c:_checksum)),c	;volatile
  2633                           opt subtitle "HI-TECH Software Omniscient Code Generator (Lite mode) build 49521"
  2634                           
  2635  0002D4                     l1033:
  2636                           opt subtitle "HI-TECH Software Omniscient Code Generator (Lite mode) build 49521"
  2637  0002D4  0E08               	movlw	low(08h)
  2638  0002D6  6E13               	movwf	((c:_I2C_FSM)),c	;volatile
  2639                           opt subtitle "HI-TECH Software Omniscient Code Generator (Lite mode) build 49521"
  2640                           
  2641  0002D8  D023               	goto	l186
  2642                           opt subtitle "HI-TECH Software Omniscient Code Generator (Lite mode) build 49521"
  2643                           
  2644                           opt pagewidth 120
  2645  0002DA                     l201:
  2646                           opt subtitle "HI-TECH Software Omniscient Code Generator (Lite mode) build 49521"
  2647                           
  2648  0002DA  CFC9 F01F          	movff	(c:4041),0+((c:_dataBuffer)+07h)	;volatile
  2649                           opt subtitle "HI-TECH Software Omniscient Code Generator (Lite mode) build 49521"
  2650                           
  2651  0002DE                     l1035:
  2652                           opt subtitle "HI-TECH Software Omniscient Code Generator (Lite mode) build 49521"
  2653  0002DE  0E09               	movlw	low(09h)
  2654  0002E0  6E13               	movwf	((c:_I2C_FSM)),c	;volatile
  2655                           opt subtitle "HI-TECH Software Omniscient Code Generator (Lite mode) build 49521"
  2656                           
  2657  0002E2  D01E               	goto	l186
  2658                           opt subtitle "HI-TECH Software Omniscient Code Generator (Lite mode) build 49521"
  2659                           
  2660                           opt pagewidth 120
  2661  0002E4                     l202:
  2662                           opt subtitle "HI-TECH Software Omniscient Code Generator (Lite mode) build 49521"
  2663                           
  2664  0002E4  D01D               	goto	l186
  2665                           opt subtitle "HI-TECH Software Omniscient Code Generator (Lite mode) build 49521"
  2666                           
  2667  0002E6                     l1037:
  2668                           opt subtitle "HI-TECH Software Omniscient Code Generator (Lite mode) build 49521"
  2669  0002E6  D01C               	goto	l186
  2670                           opt subtitle "HI-TECH Software Omniscient Code Generator (Lite mode) build 49521"
  2671                           
  2672  0002E8                     l192:
  2673                           opt subtitle "HI-TECH Software Omniscient Code Generator (Lite mode) build 49521"
  2674  0002E8                     l1039:
  2675  0002E8  5013               	movf	((c:_I2C_FSM)),c,w	;volatile
  2676                           opt subtitle "HI-TECH Software Omniscient Code Generator (Lite mode) build 49521"
  2677                           
  2678                           opt pagewidth 120
  2679                           
  2680                           	opt lm
  2681                           
  2682                           	processor	18F26K22
  2683  0002EA  0A00               	xorlw	0^0	; case 0
  2684  0002EC  B4D8               	skipnz
  2685  0002EE  D7C2               	goto	l1003
  2686  0002F0  0A02               	xorlw	2^0	; case 2
  2687  0002F2  B4D8               	skipnz
  2688  0002F4  D7C8               	goto	l195
  2689  0002F6  0A01               	xorlw	3^2	; case 3
  2690  0002F8  B4D8               	skipnz
  2691  0002FA  D7CC               	goto	l196
  2692  0002FC  0A07               	xorlw	4^3	; case 4
  2693  0002FE  B4D8               	skipnz
  2694  000300  D7D0               	goto	l197
  2695  000302  0A01               	xorlw	5^4	; case 5
  2696  000304  B4D8               	skipnz
  2697  000306  D7D4               	goto	l198
  2698  000308  0A03               	xorlw	6^5	; case 6
  2699  00030A  B4D8               	skipnz
  2700  00030C  D7D8               	goto	l199
  2701  00030E  0A01               	xorlw	7^6	; case 7
  2702  000310  B4D8               	skipnz
  2703  000312  D7DC               	goto	l200
  2704  000314  0A0F               	xorlw	8^7	; case 8
  2705  000316  B4D8               	skipnz
  2706  000318  D7E0               	goto	l201
  2707  00031A  D002               	goto	l186
  2708                           opt subtitle "HI-TECH Software Omniscient Code Generator (Lite mode) build 49521"
  2709                           
  2710                           opt pagewidth 120
  2711  00031C                     l194:
  2712  00031C  D001               	goto	l186
  2713                           opt subtitle "HI-TECH Software Omniscient Code Generator (Lite mode) build 49521"
  2714                           
  2715  00031E                     l191:
  2716  00031E  D000               	goto	l186
  2717                           opt subtitle "HI-TECH Software Omniscient Code Generator (Lite mode) build 49521"
  2718                           
  2719  000320                     l190:
  2720                           opt subtitle "HI-TECH Software Omniscient Code Generator (Lite mode) build 49521"
  2721  000320                     l186:
  2722                           opt subtitle "HI-TECH Software Omniscient Code Generator (Lite mode) build 49521"
  2723                           
  2724  000320  88C6               	bsf	((c:4038)),c,4	;volatile
  2725  000322  D000               	goto	l1041
  2726                           opt subtitle "HI-TECH Software Omniscient Code Generator (Lite mode) build 49521"
  2727                           
  2728  000324                     l183:
  2729                           opt subtitle "HI-TECH Software Omniscient Code Generator (Lite mode) build 49521"
  2730                           
  2731  000324                     l1041:
  2732                           opt subtitle "HI-TECH Software Omniscient Code Generator (Lite mode) build 49521"
  2733                           
  2734  000324  5016               	movf	((c:_data_updated)),c,w	;volatile
  2735  000326  B4D8               	btfsc	status,2
  2736  000328  D001               	goto	u131
  2737  00032A  D001               	goto	u130
  2738  00032C                     u131:
  2739  00032C  D06F               	goto	l204
  2740  00032E                     u130:
  2741                           opt subtitle "HI-TECH Software Omniscient Code Generator (Lite mode) build 49521"
  2742                           
  2743  00032E                     l1043:
  2744                           opt subtitle "HI-TECH Software Omniscient Code Generator (Lite mode) build 49521"
  2745                           
  2746  00032E  5019               	movf	(0+((c:_dataBuffer)+01h)),c,w	;volatile
  2747  000330  0D47               	mullw	047h
  2748  000332  CFF3 F02E          	movff	prodl,(c:?___awdiv)
  2749  000336  CFF4 F02F          	movff	prodh,(c:?___awdiv+1)
  2750  00033A  0E00               	movlw	high(0FFh)
  2751  00033C  6E31               	movwf	(1+((c:?___awdiv)+02h)),c
  2752  00033E  0EFF               	movlw	low(0FFh)
  2753  000340  6E30               	movwf	(0+((c:?___awdiv)+02h)),c
  2754  000342  EC07  F002         	call	___awdiv	;wreg free
  2755  000346  0E3E               	movlw	low(03Eh)
  2756  000348  242E               	addwf	(0+?___awdiv),c,w
  2757                           opt subtitle "HI-TECH Software Omniscient Code Generator (Lite mode) build 49521"
  2758  00034A  6E0B               	movwf	((c:_ESC_PWM_BUFFER_REG)),c	;volatile
  2759  00034C  0E00               	movlw	high(03Eh)
  2760  00034E  202F               	addwfc	(1+?___awdiv),c,w
  2761  000350  6E0C               	movwf	1+((c:_ESC_PWM_BUFFER_REG)),c	;volatile
  2762                           opt subtitle "HI-TECH Software Omniscient Code Generator (Lite mode) build 49521"
  2763                           
  2764  000352  501A               	movf	(0+((c:_dataBuffer)+02h)),c,w	;volatile
  2765  000354  0D47               	mullw	047h
  2766  000356  CFF3 F02E          	movff	prodl,(c:?___awdiv)
  2767  00035A  CFF4 F02F          	movff	prodh,(c:?___awdiv+1)
  2768  00035E  0E00               	movlw	high(0FFh)
  2769  000360  6E31               	movwf	(1+((c:?___awdiv)+02h)),c
  2770  000362  0EFF               	movlw	low(0FFh)
  2771  000364  6E30               	movwf	(0+((c:?___awdiv)+02h)),c
  2772  000366  EC07  F002         	call	___awdiv	;wreg free
  2773  00036A  0E3E               	movlw	low(03Eh)
  2774  00036C  242E               	addwf	(0+?___awdiv),c,w
  2775                           opt subtitle "HI-TECH Software Omniscient Code Generator (Lite mode) build 49521"
  2776  00036E  6E05               	movwf	((c:_AIL_PWM_BUFFER_REG)),c	;volatile
  2777  000370  0E00               	movlw	high(03Eh)
  2778  000372  202F               	addwfc	(1+?___awdiv),c,w
  2779  000374  6E06               	movwf	1+((c:_AIL_PWM_BUFFER_REG)),c	;volatile
  2780                           opt subtitle "HI-TECH Software Omniscient Code Generator (Lite mode) build 49521"
  2781                           
  2782  000376  501B               	movf	(0+((c:_dataBuffer)+03h)),c,w	;volatile
  2783  000378  0D47               	mullw	047h
  2784  00037A  CFF3 F02E          	movff	prodl,(c:?___awdiv)
  2785  00037E  CFF4 F02F          	movff	prodh,(c:?___awdiv+1)
  2786  000382  0E00               	movlw	high(0FFh)
  2787  000384  6E31               	movwf	(1+((c:?___awdiv)+02h)),c
  2788  000386  0EFF               	movlw	low(0FFh)
  2789  000388  6E30               	movwf	(0+((c:?___awdiv)+02h)),c
  2790  00038A  EC07  F002         	call	___awdiv	;wreg free
  2791  00038E  0E3E               	movlw	low(03Eh)
  2792  000390  242E               	addwf	(0+?___awdiv),c,w
  2793                           opt subtitle "HI-TECH Software Omniscient Code Generator (Lite mode) build 49521"
  2794  000392  6E09               	movwf	((c:_ELEV_PWM_BUFFER_REG)),c	;volatile
  2795  000394  0E00               	movlw	high(03Eh)
  2796  000396  202F               	addwfc	(1+?___awdiv),c,w
  2797  000398  6E0A               	movwf	1+((c:_ELEV_PWM_BUFFER_REG)),c	;volatile
  2798                           opt subtitle "HI-TECH Software Omniscient Code Generator (Lite mode) build 49521"
  2799                           
  2800  00039A  501C               	movf	(0+((c:_dataBuffer)+04h)),c,w	;volatile
  2801  00039C  0D47               	mullw	047h
  2802  00039E  CFF3 F02E          	movff	prodl,(c:?___awdiv)
  2803  0003A2  CFF4 F02F          	movff	prodh,(c:?___awdiv+1)
  2804  0003A6  0E00               	movlw	high(0FFh)
  2805  0003A8  6E31               	movwf	(1+((c:?___awdiv)+02h)),c
  2806  0003AA  0EFF               	movlw	low(0FFh)
  2807  0003AC  6E30               	movwf	(0+((c:?___awdiv)+02h)),c
  2808  0003AE  EC07  F002         	call	___awdiv	;wreg free
  2809  0003B2  0E3E               	movlw	low(03Eh)
  2810  0003B4  242E               	addwf	(0+?___awdiv),c,w
  2811                           opt subtitle "HI-TECH Software Omniscient Code Generator (Lite mode) build 49521"
  2812  0003B6  6E0F               	movwf	((c:_RUDD_PWM_BUFFER_REG)),c	;volatile
  2813  0003B8  0E00               	movlw	high(03Eh)
  2814  0003BA  202F               	addwfc	(1+?___awdiv),c,w
  2815  0003BC  6E10               	movwf	1+((c:_RUDD_PWM_BUFFER_REG)),c	;volatile
  2816                           opt subtitle "HI-TECH Software Omniscient Code Generator (Lite mode) build 49521"
  2817                           
  2818  0003BE  501D               	movf	(0+((c:_dataBuffer)+05h)),c,w	;volatile
  2819  0003C0  0D47               	mullw	047h
  2820  0003C2  CFF3 F02E          	movff	prodl,(c:?___awdiv)
  2821  0003C6  CFF4 F02F          	movff	prodh,(c:?___awdiv+1)
  2822  0003CA  0E00               	movlw	high(0FFh)
  2823  0003CC  6E31               	movwf	(1+((c:?___awdiv)+02h)),c
  2824  0003CE  0EFF               	movlw	low(0FFh)
  2825  0003D0  6E30               	movwf	(0+((c:?___awdiv)+02h)),c
  2826  0003D2  EC07  F002         	call	___awdiv	;wreg free
  2827  0003D6  0E3E               	movlw	low(03Eh)
  2828  0003D8  242E               	addwf	(0+?___awdiv),c,w
  2829                           opt subtitle "HI-TECH Software Omniscient Code Generator (Lite mode) build 49521"
  2830  0003DA  6E0D               	movwf	((c:_GEAR_PWM_BUFFER_REG)),c	;volatile
  2831  0003DC  0E00               	movlw	high(03Eh)
  2832  0003DE  202F               	addwfc	(1+?___awdiv),c,w
  2833  0003E0  6E0E               	movwf	1+((c:_GEAR_PWM_BUFFER_REG)),c	;volatile
  2834                           opt subtitle "HI-TECH Software Omniscient Code Generator (Lite mode) build 49521"
  2835                           
  2836  0003E2  501E               	movf	(0+((c:_dataBuffer)+06h)),c,w	;volatile
  2837  0003E4  0D47               	mullw	047h
  2838  0003E6  CFF3 F02E          	movff	prodl,(c:?___awdiv)
  2839  0003EA  CFF4 F02F          	movff	prodh,(c:?___awdiv+1)
  2840  0003EE  0E00               	movlw	high(0FFh)
  2841  0003F0  6E31               	movwf	(1+((c:?___awdiv)+02h)),c
  2842  0003F2  0EFF               	movlw	low(0FFh)
  2843  0003F4  6E30               	movwf	(0+((c:?___awdiv)+02h)),c
  2844  0003F6  EC07  F002         	call	___awdiv	;wreg free
  2845  0003FA  0E3E               	movlw	low(03Eh)
  2846  0003FC  242E               	addwf	(0+?___awdiv),c,w
  2847                           opt subtitle "HI-TECH Software Omniscient Code Generator (Lite mode) build 49521"
  2848  0003FE  6E07               	movwf	((c:_AUX_PWM_BUFFER_REG)),c	;volatile
  2849  000400  0E00               	movlw	high(03Eh)
  2850  000402  202F               	addwfc	(1+?___awdiv),c,w
  2851  000404  6E08               	movwf	1+((c:_AUX_PWM_BUFFER_REG)),c	;volatile
  2852                           opt subtitle "HI-TECH Software Omniscient Code Generator (Lite mode) build 49521"
  2853                           
  2854  000406                     l1045:
  2855                           opt subtitle "HI-TECH Software Omniscient Code Generator (Lite mode) build 49521"
  2856  000406  0E00               	movlw	low(0)
  2857  000408  6E16               	movwf	((c:_data_updated)),c	;volatile
  2858  00040A  D000               	goto	l204
  2859                           opt subtitle "HI-TECH Software Omniscient Code Generator (Lite mode) build 49521"
  2860                           
  2861  00040C                     l203:
  2862                           opt subtitle "HI-TECH Software Omniscient Code Generator (Lite mode) build 49521"
  2863                           
  2864  00040C                     l204:
  2865  00040C  0012               	return
  2866                           opt subtitle "HI-TECH Software Omniscient Code Generator (Lite mode) build 49521"
  2867                           
  2868  00040E                     	__end_of_i2c_process:
  2869                           opt subtitle "HI-TECH Software Omniscient Code Generator (Lite mode) build 49521"
  2870                           
  2871                           opt pagewidth 120
  2872                           
  2873                           	opt lm
  2874                           
  2875                           	processor	18F26K22
  2876                           porta	equ	0F80h
  2877                           portb	equ	0F81h
  2878                           portc	equ	0F82h
  2879                           portd	equ	0F83h
  2880                           porte	equ	0F84h
  2881                           lata	equ	0F89h
  2882                           latb	equ	0F8Ah
  2883                           latc	equ	0F8Bh
  2884                           latd	equ	0F8Ch
  2885                           late	equ	0F8Dh
  2886                           trisa	equ	0F92h
  2887                           trisb	equ	0F93h
  2888                           trisc	equ	0F94h
  2889                           trisd	equ	0F95h
  2890                           trise	equ	0F96h
  2891                           pie1	equ	0F9Dh
  2892                           pir1	equ	0F9Eh
  2893                           ipr1	equ	0F9Fh
  2894                           pie2	equ	0FA0h
  2895                           pir2	equ	0FA1h
  2896                           ipr2	equ	0FA2h
  2897                           t3con	equ	0FB1h
  2898                           tmr3l	equ	0FB2h
  2899                           tmr3h	equ	0FB3h
  2900                           ccp1con	equ	0FBDh
  2901                           ccpr1l	equ	0FBEh
  2902                           ccpr1h	equ	0FBFh
  2903                           adcon1	equ	0FC1h
  2904                           adcon0	equ	0FC2h
  2905                           adresl	equ	0FC3h
  2906  00040E                     __ptext6:
  2907                           opt subtitle "HI-TECH Software Omniscient Code Generator (Lite mode) build 49521"
  2908                           
  2909                           opt pagewidth 120
  2910                           
  2911  0000                     	__size_of___awdiv	equ	__end_of___awdiv-___awdiv
  2912                           opt subtitle "HI-TECH Software Omniscient Code Generator (Lite mode) build 49521"
  2913  00040E                     ___awdiv:
  2914                           opt subtitle "HI-TECH Software Omniscient Code Generator (Lite mode) build 49521"
  2915                           
  2916                           opt pagewidth 120
  2917  00040E                     l1109:
  2918  00040E  6E32               	movwf	(??___awdiv+0+0)&0ffh,c
  2919  000410  0E00               	movlw	low(0)
  2920  000412  6E34               	movwf	((c:___awdiv@sign)),c
  2921  000414  5032               	movf	(??___awdiv+0+0)&0ffh,c,w
  2922                           opt subtitle "HI-TECH Software Omniscient Code Generator (Lite mode) build 49521"
  2923                           
  2924  000416                     l1111:
  2925  000416  AE31               	btfss	((c:___awdiv@divisor+1)),c,7
  2926  000418  D001               	goto	u281
  2927  00041A  D001               	goto	u280
  2928  00041C                     u281:
  2929  00041C  D009               	goto	l1117
  2930  00041E                     u280:
  2931                           opt subtitle "HI-TECH Software Omniscient Code Generator (Lite mode) build 49521"
  2932                           
  2933  00041E                     l1113:
  2934  00041E  6C30               	negf	((c:___awdiv@divisor)),c
  2935  000420  1E31               	comf	((c:___awdiv@divisor+1)),c
  2936  000422  B0D8               	btfsc	status,0
  2937  000424  2A31               	incf	((c:___awdiv@divisor+1)),c
  2938                           opt subtitle "HI-TECH Software Omniscient Code Generator (Lite mode) build 49521"
  2939                           
  2940  000426                     l1115:
  2941  000426  6E32               	movwf	(??___awdiv+0+0)&0ffh,c
  2942  000428  0E01               	movlw	low(01h)
  2943  00042A  6E34               	movwf	((c:___awdiv@sign)),c
  2944  00042C  5032               	movf	(??___awdiv+0+0)&0ffh,c,w
  2945  00042E  D000               	goto	l1117
  2946                           opt subtitle "HI-TECH Software Omniscient Code Generator (Lite mode) build 49521"
  2947                           
  2948  000430                     l324:
  2949                           opt subtitle "HI-TECH Software Omniscient Code Generator (Lite mode) build 49521"
  2950                           
  2951  000430                     l1117:
  2952  000430  AE2F               	btfss	((c:___awdiv@dividend+1)),c,7
  2953  000432  D001               	goto	u291
  2954  000434  D001               	goto	u290
  2955  000436                     u291:
  2956  000436  D007               	goto	l1123
  2957  000438                     u290:
  2958                           opt subtitle "HI-TECH Software Omniscient Code Generator (Lite mode) build 49521"
  2959                           
  2960  000438                     l1119:
  2961  000438  6C2E               	negf	((c:___awdiv@dividend)),c
  2962  00043A  1E2F               	comf	((c:___awdiv@dividend+1)),c
  2963  00043C  B0D8               	btfsc	status,0
  2964  00043E  2A2F               	incf	((c:___awdiv@dividend+1)),c
  2965                           opt subtitle "HI-TECH Software Omniscient Code Generator (Lite mode) build 49521"
  2966                           
  2967  000440                     l1121:
  2968  000440  0E01               	movlw	(01h)&0ffh
  2969  000442  1A34               	xorwf	((c:___awdiv@sign)),c
  2970  000444  D000               	goto	l1123
  2971                           opt subtitle "HI-TECH Software Omniscient Code Generator (Lite mode) build 49521"
  2972                           
  2973  000446                     l325:
  2974                           opt subtitle "HI-TECH Software Omniscient Code Generator (Lite mode) build 49521"
  2975                           
  2976  000446                     l1123:
  2977  000446  0E00               	movlw	high(0)
  2978  000448  6E36               	movwf	((c:___awdiv@quotient+1)),c
  2979  00044A  0E00               	movlw	low(0)
  2980  00044C  6E35               	movwf	((c:___awdiv@quotient)),c
  2981                           opt subtitle "HI-TECH Software Omniscient Code Generator (Lite mode) build 49521"
  2982                           
  2983  00044E                     l1125:
  2984  00044E  5031               	movf	((c:___awdiv@divisor+1)),c,w
  2985  000450  1030               	iorwf ((c:___awdiv@divisor)),c,w
  2986                           opt subtitle "HI-TECH Software Omniscient Code Generator (Lite mode) build 49521"
  2987  000452  B4D8               	btfsc	status,2
  2988  000454  D001               	goto	u301
  2989  000456  D001               	goto	u300
  2990  000458                     u301:
  2991  000458  D028               	goto	l1145
  2992  00045A                     u300:
  2993                           opt subtitle "HI-TECH Software Omniscient Code Generator (Lite mode) build 49521"
  2994                           
  2995  00045A                     l1127:
  2996  00045A  6E32               	movwf	(??___awdiv+0+0)&0ffh,c
  2997  00045C  0E01               	movlw	low(01h)
  2998  00045E  6E33               	movwf	((c:___awdiv@counter)),c
  2999  000460  5032               	movf	(??___awdiv+0+0)&0ffh,c,w
  3000                           opt subtitle "HI-TECH Software Omniscient Code Generator (Lite mode) build 49521"
  3001  000462  D005               	goto	l1131
  3002                           opt subtitle "HI-TECH Software Omniscient Code Generator (Lite mode) build 49521"
  3003  000464                     l328:
  3004                           opt subtitle "HI-TECH Software Omniscient Code Generator (Lite mode) build 49521"
  3005                           
  3006  000464                     l1129:
  3007  000464  90D8               	bcf	status,0
  3008  000466  3630               	rlcf	((c:___awdiv@divisor)),c
  3009  000468  3631               	rlcf	((c:___awdiv@divisor+1)),c
  3010                           opt subtitle "HI-TECH Software Omniscient Code Generator (Lite mode) build 49521"
  3011  00046A  2A33               	incf	((c:___awdiv@counter)),c
  3012  00046C  D000               	goto	l1131
  3013                           opt subtitle "HI-TECH Software Omniscient Code Generator (Lite mode) build 49521"
  3014                           
  3015  00046E                     l327:
  3016                           opt subtitle "HI-TECH Software Omniscient Code Generator (Lite mode) build 49521"
  3017                           
  3018  00046E                     l1131:
  3019                           opt subtitle "HI-TECH Software Omniscient Code Generator (Lite mode) build 49521"
  3020  00046E  AE31               	btfss	((c:___awdiv@divisor+1)),c,(15)&7
  3021  000470  D001               	goto	u311
  3022  000472  D001               	goto	u310
  3023  000474                     u311:
  3024  000474  D7F7               	goto	l1129
  3025  000476                     u310:
  3026  000476  D001               	goto	l1133
  3027                           opt subtitle "HI-TECH Software Omniscient Code Generator (Lite mode) build 49521"
  3028  000478                     l329:
  3029  000478  D000               	goto	l1133
  3030                           opt subtitle "HI-TECH Software Omniscient Code Generator (Lite mode) build 49521"
  3031                           
  3032  00047A                     l330:
  3033                           opt subtitle "HI-TECH Software Omniscient Code Generator (Lite mode) build 49521"
  3034                           
  3035  00047A                     l1133:
  3036  00047A  90D8               	bcf	status,0
  3037  00047C  3635               	rlcf	((c:___awdiv@quotient)),c
  3038  00047E  3636               	rlcf	((c:___awdiv@quotient+1)),c
  3039                           opt subtitle "HI-TECH Software Omniscient Code Generator (Lite mode) build 49521"
  3040                           
  3041  000480                     l1135:
  3042  000480  5030               	movf	((c:___awdiv@divisor)),c,w
  3043  000482  5C2E               	subwf	((c:___awdiv@dividend)),c,w
  3044  000484  5031               	movf	((c:___awdiv@divisor+1)),c,w
  3045  000486  582F               	subwfb	((c:___awdiv@dividend+1)),c,w
  3046  000488  A0D8               	btfss	status,0
  3047  00048A  D001               	goto	u321
  3048  00048C  D001               	goto	u320
  3049  00048E                     u321:
  3050  00048E  D006               	goto	l1141
  3051  000490                     u320:
  3052                           opt subtitle "HI-TECH Software Omniscient Code Generator (Lite mode) build 49521"
  3053                           
  3054  000490                     l1137:
  3055  000490  5030               	movf	((c:___awdiv@divisor)),c,w
  3056  000492  5E2E               	subwf	((c:___awdiv@dividend)),c
  3057  000494  5031               	movf	((c:___awdiv@divisor+1)),c,w
  3058  000496  5A2F               	subwfb	((c:___awdiv@dividend+1)),c
  3059                           opt subtitle "HI-TECH Software Omniscient Code Generator (Lite mode) build 49521"
  3060                           
  3061                           opt pagewidth 120
  3062  000498                     l1139:
  3063  000498  8035               	bsf	(0+(0/8)+(c:___awdiv@quotient)),c,(0)&7
  3064  00049A  D000               	goto	l1141
  3065                           opt subtitle "HI-TECH Software Omniscient Code Generator (Lite mode) build 49521"
  3066                           
  3067  00049C                     l331:
  3068                           opt subtitle "HI-TECH Software Omniscient Code Generator (Lite mode) build 49521"
  3069                           
  3070  00049C                     l1141:
  3071  00049C  90D8               	bcf	status,0
  3072  00049E  3231               	rrcf	((c:___awdiv@divisor+1)),c
  3073  0004A0  3230               	rrcf	((c:___awdiv@divisor)),c
  3074                           opt subtitle "HI-TECH Software Omniscient Code Generator (Lite mode) build 49521"
  3075                           
  3076  0004A2                     l1143:
  3077  0004A2  2E33               	decfsz	((c:___awdiv@counter)),c
  3078                           opt subtitle "HI-TECH Software Omniscient Code Generator (Lite mode) build 49521"
  3079  0004A4  D7EA               	goto	l1133
  3080  0004A6  D001               	goto	l1145
  3081                           opt subtitle "HI-TECH Software Omniscient Code Generator (Lite mode) build 49521"
  3082  0004A8                     l332:
  3083  0004A8  D000               	goto	l1145
  3084                           opt subtitle "HI-TECH Software Omniscient Code Generator (Lite mode) build 49521"
  3085                           
  3086  0004AA                     l326:
  3087                           opt subtitle "HI-TECH Software Omniscient Code Generator (Lite mode) build 49521"
  3088                           
  3089  0004AA                     l1145:
  3090  0004AA  5034               	movf	((c:___awdiv@sign)),c,w
  3091  0004AC  B4D8               	btfsc	status,2
  3092  0004AE  D001               	goto	u331
  3093  0004B0  D001               	goto	u330
  3094  0004B2                     u331:
  3095  0004B2  D005               	goto	l1149
  3096  0004B4                     u330:
  3097                           opt subtitle "HI-TECH Software Omniscient Code Generator (Lite mode) build 49521"
  3098                           
  3099  0004B4                     l1147:
  3100  0004B4  6C35               	negf	((c:___awdiv@quotient)),c
  3101  0004B6  1E36               	comf	((c:___awdiv@quotient+1)),c
  3102  0004B8  B0D8               	btfsc	status,0
  3103  0004BA  2A36               	incf	((c:___awdiv@quotient+1)),c
  3104  0004BC  D000               	goto	l1149
  3105                           opt subtitle "HI-TECH Software Omniscient Code Generator (Lite mode) build 49521"
  3106  0004BE                     l333:
  3107                           opt subtitle "HI-TECH Software Omniscient Code Generator (Lite mode) build 49521"
  3108                           
  3109  0004BE                     l1149:
  3110  0004BE  C035  F02E         	movff	(c:___awdiv@quotient),(c:?___awdiv)
  3111  0004C2  C036  F02F         	movff	(c:___awdiv@quotient+1),(c:?___awdiv+1)
  3112  0004C6  D000               	goto	l334
  3113                           opt subtitle "HI-TECH Software Omniscient Code Generator (Lite mode) build 49521"
  3114  0004C8                     l1151:
  3115                           opt subtitle "HI-TECH Software Omniscient Code Generator (Lite mode) build 49521"
  3116                           
  3117  0004C8                     l334:
  3118  0004C8  0012               	return
  3119                           opt subtitle "HI-TECH Software Omniscient Code Generator (Lite mode) build 49521"
  3120                           
  3121  0004CA                     	__end_of___awdiv:
  3122                           opt subtitle "HI-TECH Software Omniscient Code Generator (Lite mode) build 49521"
  3123                           
  3124                           opt pagewidth 120
  3125                           
  3126                           	opt lm
  3127                           
  3128                           	processor	18F26K22
  3129                           porta	equ	0F80h
  3130                           portb	equ	0F81h
  3131                           portc	equ	0F82h
  3132                           portd	equ	0F83h
  3133                           porte	equ	0F84h
  3134                           lata	equ	0F89h
  3135                           latb	equ	0F8Ah
  3136                           latc	equ	0F8Bh
  3137                           latd	equ	0F8Ch
  3138                           late	equ	0F8Dh
  3139                           trisa	equ	0F92h
  3140                           trisb	equ	0F93h
  3141                           trisc	equ	0F94h
  3142                           trisd	equ	0F95h
  3143                           trise	equ	0F96h
  3144                           pie1	equ	0F9Dh
  3145                           pir1	equ	0F9Eh
  3146                           ipr1	equ	0F9Fh
  3147                           pie2	equ	0FA0h
  3148                           pir2	equ	0FA1h
  3149                           ipr2	equ	0FA2h
  3150                           t3con	equ	0FB1h
  3151                           tmr3l	equ	0FB2h
  3152                           tmr3h	equ	0FB3h
  3153                           ccp1con	equ	0FBDh
  3154                           ccpr1l	equ	0FBEh
  3155  000008                     __pintcode:
  3156                           opt subtitle "HI-TECH Software Omniscient Code Generator (Lite mode) build 49521"
  3157                           
  3158                           opt pagewidth 120
  3159                           
  3160  0000                     	__size_of_InterruptHandlerHigh	equ	__end_of_InterruptHandlerHigh-_InterruptHandlerHigh
  3161                           opt subtitle "HI-TECH Software Omniscient Code Generator (Lite mode) build 49521"
  3162  000008                     _InterruptHandlerHigh:
  3163                           opt subtitle "HI-TECH Software Omniscient Code Generator (Lite mode) build 49521"
  3164  000008  CFFA F020          	movff	pclat+0,??_InterruptHandlerHigh+0
  3165  00000C  CFFB F021          	movff	pclat+1,??_InterruptHandlerHigh+1
  3166  000010  CFE9 F022          	movff	fsr0l+0,??_InterruptHandlerHigh+2
  3167  000014  CFEA F023          	movff	fsr0h+0,??_InterruptHandlerHigh+3
  3168  000018  CFE1 F024          	movff	fsr1l+0,??_InterruptHandlerHigh+4
  3169  00001C  CFE2 F025          	movff	fsr1h+0,??_InterruptHandlerHigh+5
  3170  000020  CFD9 F026          	movff	fsr2l+0,??_InterruptHandlerHigh+6
  3171  000024  CFDA F027          	movff	fsr2h+0,??_InterruptHandlerHigh+7
  3172  000028  CFF3 F028          	movff	prodl+0,??_InterruptHandlerHigh+8
  3173  00002C  CFF4 F029          	movff	prodh+0,??_InterruptHandlerHigh+9
  3174  000030  CFF6 F02A          	movff	tblptrl+0,??_InterruptHandlerHigh+10
  3175  000034  CFF7 F02B          	movff	tblptrh+0,??_InterruptHandlerHigh+11
  3176  000038  CFF8 F02C          	movff	tblptru+0,??_InterruptHandlerHigh+12
  3177  00003C  CFF5 F02D          	movff	tablat+0,??_InterruptHandlerHigh+13
  3178                           opt subtitle "HI-TECH Software Omniscient Code Generator (Lite mode) build 49521"
  3179                           
  3180  000040                     i2l1047:
  3181                           opt subtitle "HI-TECH Software Omniscient Code Generator (Lite mode) build 49521"
  3182                           
  3183  000040  A4F2               	btfss	((c:4082)),c,2	;volatile
  3184  000042  D001               	goto	i2u14_41
  3185  000044  D001               	goto	i2u14_40
  3186  000046                     i2u14_41:
  3187  000046  D0A7               	goto	i2l176
  3188  000048                     i2u14_40:
  3189                           opt subtitle "HI-TECH Software Omniscient Code Generator (Lite mode) build 49521"
  3190                           
  3191  000048                     i2l1049:
  3192                           opt subtitle "HI-TECH Software Omniscient Code Generator (Lite mode) build 49521"
  3193                           
  3194  000048  94F2               	bcf	((c:4082)),c,2	;volatile
  3195                           opt subtitle "HI-TECH Software Omniscient Code Generator (Lite mode) build 49521"
  3196                           
  3197  00004A                     i2l1051:
  3198                           opt subtitle "HI-TECH Software Omniscient Code Generator (Lite mode) build 49521"
  3199  00004A  50D6               	movf	((c:4054)),c,w	;volatile
  3200  00004C  0F8A               	addlw	low(08Ah)
  3201  00004E  6ED6               	movwf	((c:4054)),c	;volatile
  3202                           opt subtitle "HI-TECH Software Omniscient Code Generator (Lite mode) build 49521"
  3203                           
  3204  000050                     i2l1053:
  3205                           opt subtitle "HI-TECH Software Omniscient Code Generator (Lite mode) build 49521"
  3206  000050  B04C               	btfsc	(c:_ESC_n),c,0	;volatile
  3207  000052  D002               	bra	i2u15_45
  3208  000054  908A               	bcf	((c:3978)),c,0	;volatile
  3209  000056  D001               	bra	i2u15_46
  3210  000058                     	i2u15_45:
  3211  000058  808A               	bsf	((c:3978)),c,0	;volatile
  3212  00005A                     	i2u15_46:
  3213                           opt subtitle "HI-TECH Software Omniscient Code Generator (Lite mode) build 49521"
  3214                           
  3215                           opt pagewidth 120
  3216  00005A                     i2l1055:
  3217                           opt subtitle "HI-TECH Software Omniscient Code Generator (Lite mode) build 49521"
  3218  00005A  B049               	btfsc	(c:_AIL_n),c,0	;volatile
  3219  00005C  D002               	bra	i2u16_45
  3220  00005E  968A               	bcf	((c:3978)),c,3	;volatile
  3221  000060  D001               	bra	i2u16_46
  3222  000062                     	i2u16_45:
  3223  000062  868A               	bsf	((c:3978)),c,3	;volatile
  3224  000064                     	i2u16_46:
  3225                           opt subtitle "HI-TECH Software Omniscient Code Generator (Lite mode) build 49521"
  3226                           
  3227                           opt pagewidth 120
  3228  000064                     i2l1057:
  3229                           opt subtitle "HI-TECH Software Omniscient Code Generator (Lite mode) build 49521"
  3230  000064  B04E               	btfsc	(c:_RUDD_n),c,0	;volatile
  3231  000066  D002               	bra	i2u17_45
  3232  000068  9A8A               	bcf	((c:3978)),c,5	;volatile
  3233  00006A  D001               	bra	i2u17_46
  3234  00006C                     	i2u17_45:
  3235  00006C  8A8A               	bsf	((c:3978)),c,5	;volatile
  3236  00006E                     	i2u17_46:
  3237                           opt subtitle "HI-TECH Software Omniscient Code Generator (Lite mode) build 49521"
  3238                           
  3239                           opt pagewidth 120
  3240  00006E                     i2l1059:
  3241                           opt subtitle "HI-TECH Software Omniscient Code Generator (Lite mode) build 49521"
  3242  00006E  B04B               	btfsc	(c:_ELEV_n),c,0	;volatile
  3243  000070  D002               	bra	i2u18_45
  3244  000072  988A               	bcf	((c:3978)),c,4	;volatile
  3245  000074  D001               	bra	i2u18_46
  3246  000076                     	i2u18_45:
  3247  000076  888A               	bsf	((c:3978)),c,4	;volatile
  3248  000078                     	i2u18_46:
  3249                           opt subtitle "HI-TECH Software Omniscient Code Generator (Lite mode) build 49521"
  3250                           
  3251                           opt pagewidth 120
  3252  000078                     i2l1061:
  3253                           opt subtitle "HI-TECH Software Omniscient Code Generator (Lite mode) build 49521"
  3254  000078  B04D               	btfsc	(c:_GEAR_n),c,0	;volatile
  3255  00007A  D002               	bra	i2u19_45
  3256  00007C  948B               	bcf	((c:3979)),c,2	;volatile
  3257  00007E  D001               	bra	i2u19_46
  3258  000080                     	i2u19_45:
  3259  000080  848B               	bsf	((c:3979)),c,2	;volatile
  3260  000082                     	i2u19_46:
  3261                           opt subtitle "HI-TECH Software Omniscient Code Generator (Lite mode) build 49521"
  3262                           
  3263                           opt pagewidth 120
  3264  000082                     i2l1063:
  3265                           opt subtitle "HI-TECH Software Omniscient Code Generator (Lite mode) build 49521"
  3266  000082  B04A               	btfsc	(c:_AUX_n),c,0	;volatile
  3267  000084  D002               	bra	i2u20_45
  3268  000086  9889               	bcf	((c:3977)),c,4	;volatile
  3269  000088  D001               	bra	i2u20_46
  3270  00008A                     	i2u20_45:
  3271  00008A  8889               	bsf	((c:3977)),c,4	;volatile
  3272  00008C                     	i2u20_46:
  3273                           opt subtitle "HI-TECH Software Omniscient Code Generator (Lite mode) build 49521"
  3274                           
  3275                           opt pagewidth 120
  3276  00008C                     i2l1065:
  3277                           opt subtitle "HI-TECH Software Omniscient Code Generator (Lite mode) build 49521"
  3278  00008C  4A11               	infsnz	((c:_count)),c	;volatile
  3279  00008E  2A12               	incf	((c:_count+1)),c	;volatile
  3280                           opt subtitle "HI-TECH Software Omniscient Code Generator (Lite mode) build 49521"
  3281                           
  3282  000090                     i2l1067:
  3283                           opt subtitle "HI-TECH Software Omniscient Code Generator (Lite mode) build 49521"
  3284  000090  503E               	movf	((c:_ESC_PWM_REG+1)),c,w	;volatile
  3285  000092  1812               	xorwf	((c:_count+1)),c,w	;volatile
  3286  000094  E102               	bnz	i2u21_45
  3287  000096  503D               	movf	((c:_ESC_PWM_REG)),c,w	;volatile
  3288  000098  1811               	xorwf	((c:_count)),c,w	;volatile
  3289  00009A                     i2u21_45:
  3290                           opt subtitle "HI-TECH Software Omniscient Code Generator (Lite mode) build 49521"
  3291  00009A  A4D8               	btfss	status,2
  3292  00009C  D001               	goto	i2u21_41
  3293  00009E  D001               	goto	i2u21_40
  3294  0000A0                     i2u21_41:
  3295  0000A0  D003               	goto	i2l1071
  3296  0000A2                     i2u21_40:
  3297                           opt subtitle "HI-TECH Software Omniscient Code Generator (Lite mode) build 49521"
  3298                           
  3299  0000A2                     i2l1069:
  3300                           opt subtitle "HI-TECH Software Omniscient Code Generator (Lite mode) build 49521"
  3301  0000A2  0E00               	movlw	low(0)
  3302  0000A4  6E4C               	movwf	((c:_ESC_n)),c	;volatile
  3303  0000A6  D000               	goto	i2l1071
  3304                           opt subtitle "HI-TECH Software Omniscient Code Generator (Lite mode) build 49521"
  3305  0000A8                     i2l169:
  3306                           opt subtitle "HI-TECH Software Omniscient Code Generator (Lite mode) build 49521"
  3307                           
  3308  0000A8                     i2l1071:
  3309                           opt subtitle "HI-TECH Software Omniscient Code Generator (Lite mode) build 49521"
  3310  0000A8  5038               	movf	((c:_AIL_PWM_REG+1)),c,w	;volatile
  3311  0000AA  1812               	xorwf	((c:_count+1)),c,w	;volatile
  3312  0000AC  E102               	bnz	i2u22_45
  3313  0000AE  5037               	movf	((c:_AIL_PWM_REG)),c,w	;volatile
  3314  0000B0  1811               	xorwf	((c:_count)),c,w	;volatile
  3315  0000B2                     i2u22_45:
  3316                           opt subtitle "HI-TECH Software Omniscient Code Generator (Lite mode) build 49521"
  3317  0000B2  A4D8               	btfss	status,2
  3318  0000B4  D001               	goto	i2u22_41
  3319  0000B6  D001               	goto	i2u22_40
  3320  0000B8                     i2u22_41:
  3321  0000B8  D003               	goto	i2l1075
  3322  0000BA                     i2u22_40:
  3323                           opt subtitle "HI-TECH Software Omniscient Code Generator (Lite mode) build 49521"
  3324                           
  3325  0000BA                     i2l1073:
  3326                           opt subtitle "HI-TECH Software Omniscient Code Generator (Lite mode) build 49521"
  3327  0000BA  0E00               	movlw	low(0)
  3328  0000BC  6E49               	movwf	((c:_AIL_n)),c	;volatile
  3329  0000BE  D000               	goto	i2l1075
  3330                           opt subtitle "HI-TECH Software Omniscient Code Generator (Lite mode) build 49521"
  3331  0000C0                     i2l170:
  3332                           opt subtitle "HI-TECH Software Omniscient Code Generator (Lite mode) build 49521"
  3333                           
  3334  0000C0                     i2l1075:
  3335                           opt subtitle "HI-TECH Software Omniscient Code Generator (Lite mode) build 49521"
  3336  0000C0  5042               	movf	((c:_RUDD_PWM_REG+1)),c,w	;volatile
  3337  0000C2  1812               	xorwf	((c:_count+1)),c,w	;volatile
  3338  0000C4  E102               	bnz	i2u23_45
  3339  0000C6  5041               	movf	((c:_RUDD_PWM_REG)),c,w	;volatile
  3340  0000C8  1811               	xorwf	((c:_count)),c,w	;volatile
  3341  0000CA                     i2u23_45:
  3342                           opt subtitle "HI-TECH Software Omniscient Code Generator (Lite mode) build 49521"
  3343  0000CA  A4D8               	btfss	status,2
  3344  0000CC  D001               	goto	i2u23_41
  3345  0000CE  D001               	goto	i2u23_40
  3346  0000D0                     i2u23_41:
  3347  0000D0  D003               	goto	i2l1079
  3348  0000D2                     i2u23_40:
  3349                           opt subtitle "HI-TECH Software Omniscient Code Generator (Lite mode) build 49521"
  3350                           
  3351  0000D2                     i2l1077:
  3352                           opt subtitle "HI-TECH Software Omniscient Code Generator (Lite mode) build 49521"
  3353  0000D2  0E00               	movlw	low(0)
  3354  0000D4  6E4E               	movwf	((c:_RUDD_n)),c	;volatile
  3355  0000D6  D000               	goto	i2l1079
  3356                           opt subtitle "HI-TECH Software Omniscient Code Generator (Lite mode) build 49521"
  3357  0000D8                     i2l171:
  3358                           opt subtitle "HI-TECH Software Omniscient Code Generator (Lite mode) build 49521"
  3359                           
  3360  0000D8                     i2l1079:
  3361                           opt subtitle "HI-TECH Software Omniscient Code Generator (Lite mode) build 49521"
  3362  0000D8  503C               	movf	((c:_ELEV_PWM_REG+1)),c,w	;volatile
  3363  0000DA  1812               	xorwf	((c:_count+1)),c,w	;volatile
  3364  0000DC  E102               	bnz	i2u24_45
  3365  0000DE  503B               	movf	((c:_ELEV_PWM_REG)),c,w	;volatile
  3366  0000E0  1811               	xorwf	((c:_count)),c,w	;volatile
  3367  0000E2                     i2u24_45:
  3368                           opt subtitle "HI-TECH Software Omniscient Code Generator (Lite mode) build 49521"
  3369  0000E2  A4D8               	btfss	status,2
  3370  0000E4  D001               	goto	i2u24_41
  3371  0000E6  D001               	goto	i2u24_40
  3372  0000E8                     i2u24_41:
  3373  0000E8  D003               	goto	i2l1083
  3374  0000EA                     i2u24_40:
  3375                           opt subtitle "HI-TECH Software Omniscient Code Generator (Lite mode) build 49521"
  3376                           
  3377  0000EA                     i2l1081:
  3378                           opt subtitle "HI-TECH Software Omniscient Code Generator (Lite mode) build 49521"
  3379  0000EA  0E00               	movlw	low(0)
  3380  0000EC  6E4B               	movwf	((c:_ELEV_n)),c	;volatile
  3381  0000EE  D000               	goto	i2l1083
  3382                           opt subtitle "HI-TECH Software Omniscient Code Generator (Lite mode) build 49521"
  3383  0000F0                     i2l172:
  3384                           opt subtitle "HI-TECH Software Omniscient Code Generator (Lite mode) build 49521"
  3385                           
  3386  0000F0                     i2l1083:
  3387                           opt subtitle "HI-TECH Software Omniscient Code Generator (Lite mode) build 49521"
  3388  0000F0  5040               	movf	((c:_GEAR_PWM_REG+1)),c,w	;volatile
  3389  0000F2  1812               	xorwf	((c:_count+1)),c,w	;volatile
  3390  0000F4  E102               	bnz	i2u25_45
  3391  0000F6  503F               	movf	((c:_GEAR_PWM_REG)),c,w	;volatile
  3392  0000F8  1811               	xorwf	((c:_count)),c,w	;volatile
  3393  0000FA                     i2u25_45:
  3394                           opt subtitle "HI-TECH Software Omniscient Code Generator (Lite mode) build 49521"
  3395  0000FA  A4D8               	btfss	status,2
  3396  0000FC  D001               	goto	i2u25_41
  3397  0000FE  D001               	goto	i2u25_40
  3398  000100                     i2u25_41:
  3399  000100  D003               	goto	i2l1087
  3400  000102                     i2u25_40:
  3401                           opt subtitle "HI-TECH Software Omniscient Code Generator (Lite mode) build 49521"
  3402                           
  3403  000102                     i2l1085:
  3404                           opt subtitle "HI-TECH Software Omniscient Code Generator (Lite mode) build 49521"
  3405  000102  0E00               	movlw	low(0)
  3406  000104  6E4D               	movwf	((c:_GEAR_n)),c	;volatile
  3407  000106  D000               	goto	i2l1087
  3408                           opt subtitle "HI-TECH Software Omniscient Code Generator (Lite mode) build 49521"
  3409  000108                     i2l173:
  3410                           opt subtitle "HI-TECH Software Omniscient Code Generator (Lite mode) build 49521"
  3411                           
  3412  000108                     i2l1087:
  3413                           opt subtitle "HI-TECH Software Omniscient Code Generator (Lite mode) build 49521"
  3414  000108  503A               	movf	((c:_AUX_PWM_REG+1)),c,w	;volatile
  3415  00010A  1812               	xorwf	((c:_count+1)),c,w	;volatile
  3416  00010C  E102               	bnz	i2u26_45
  3417  00010E  5039               	movf	((c:_AUX_PWM_REG)),c,w	;volatile
  3418  000110  1811               	xorwf	((c:_count)),c,w	;volatile
  3419  000112                     i2u26_45:
  3420                           opt subtitle "HI-TECH Software Omniscient Code Generator (Lite mode) build 49521"
  3421  000112  A4D8               	btfss	status,2
  3422  000114  D001               	goto	i2u26_41
  3423  000116  D001               	goto	i2u26_40
  3424  000118                     i2u26_41:
  3425  000118  D003               	goto	i2l1091
  3426  00011A                     i2u26_40:
  3427                           opt subtitle "HI-TECH Software Omniscient Code Generator (Lite mode) build 49521"
  3428                           
  3429  00011A                     i2l1089:
  3430                           opt subtitle "HI-TECH Software Omniscient Code Generator (Lite mode) build 49521"
  3431  00011A  0E00               	movlw	low(0)
  3432  00011C  6E4A               	movwf	((c:_AUX_n)),c	;volatile
  3433  00011E  D000               	goto	i2l1091
  3434                           opt subtitle "HI-TECH Software Omniscient Code Generator (Lite mode) build 49521"
  3435  000120                     i2l174:
  3436                           opt subtitle "HI-TECH Software Omniscient Code Generator (Lite mode) build 49521"
  3437                           
  3438  000120                     i2l1091:
  3439                           opt subtitle "HI-TECH Software Omniscient Code Generator (Lite mode) build 49521"
  3440  000120  5012               	movf	((c:_count+1)),c,w	;volatile
  3441  000122  0A05               	xorlw	5
  3442  000124  0E2D               	movlw	45
  3443  000126  B4D8               	btfsc	status,2
  3444  000128  1811               	xorwf ((c:_count)),c,w	;volatile
  3445                           opt subtitle "HI-TECH Software Omniscient Code Generator (Lite mode) build 49521"
  3446  00012A  A4D8               	btfss	status,2
  3447  00012C  D001               	goto	i2u27_41
  3448  00012E  D001               	goto	i2u27_40
  3449  000130                     i2u27_41:
  3450  000130  D029               	goto	i2l1107
  3451  000132                     i2u27_40:
  3452                           opt subtitle "HI-TECH Software Omniscient Code Generator (Lite mode) build 49521"
  3453                           
  3454  000132                     i2l1093:
  3455                           opt subtitle "HI-TECH Software Omniscient Code Generator (Lite mode) build 49521"
  3456                           
  3457  000132  0E01               	movlw	low(01h)
  3458  000134  6E4C               	movwf	((c:_ESC_n)),c	;volatile
  3459                           opt subtitle "HI-TECH Software Omniscient Code Generator (Lite mode) build 49521"
  3460                           
  3461  000136  0E01               	movlw	low(01h)
  3462  000138  6E49               	movwf	((c:_AIL_n)),c	;volatile
  3463                           opt subtitle "HI-TECH Software Omniscient Code Generator (Lite mode) build 49521"
  3464                           
  3465  00013A  0E01               	movlw	low(01h)
  3466  00013C  6E4E               	movwf	((c:_RUDD_n)),c	;volatile
  3467                           opt subtitle "HI-TECH Software Omniscient Code Generator (Lite mode) build 49521"
  3468                           
  3469  00013E  0E01               	movlw	low(01h)
  3470  000140  6E4B               	movwf	((c:_ELEV_n)),c	;volatile
  3471                           opt subtitle "HI-TECH Software Omniscient Code Generator (Lite mode) build 49521"
  3472                           
  3473  000142  0E01               	movlw	low(01h)
  3474  000144  6E4D               	movwf	((c:_GEAR_n)),c	;volatile
  3475                           opt subtitle "HI-TECH Software Omniscient Code Generator (Lite mode) build 49521"
  3476                           
  3477  000146  0E01               	movlw	low(01h)
  3478  000148  6E4A               	movwf	((c:_AUX_n)),c	;volatile
  3479                           opt subtitle "HI-TECH Software Omniscient Code Generator (Lite mode) build 49521"
  3480                           
  3481  00014A                     i2l1095:
  3482                           opt subtitle "HI-TECH Software Omniscient Code Generator (Lite mode) build 49521"
  3483  00014A  C00B  F03D         	movff	(c:_ESC_PWM_BUFFER_REG),(c:_ESC_PWM_REG)	;volatile
  3484  00014E  C00C  F03E         	movff	(c:_ESC_PWM_BUFFER_REG+1),(c:_ESC_PWM_REG+1)	;volatile
  3485                           opt subtitle "HI-TECH Software Omniscient Code Generator (Lite mode) build 49521"
  3486                           
  3487  000152                     i2l1097:
  3488                           opt subtitle "HI-TECH Software Omniscient Code Generator (Lite mode) build 49521"
  3489  000152  C005  F037         	movff	(c:_AIL_PWM_BUFFER_REG),(c:_AIL_PWM_REG)	;volatile
  3490  000156  C006  F038         	movff	(c:_AIL_PWM_BUFFER_REG+1),(c:_AIL_PWM_REG+1)	;volatile
  3491                           opt subtitle "HI-TECH Software Omniscient Code Generator (Lite mode) build 49521"
  3492                           
  3493  00015A                     i2l1099:
  3494                           opt subtitle "HI-TECH Software Omniscient Code Generator (Lite mode) build 49521"
  3495  00015A  C00F  F041         	movff	(c:_RUDD_PWM_BUFFER_REG),(c:_RUDD_PWM_REG)	;volatile
  3496  00015E  C010  F042         	movff	(c:_RUDD_PWM_BUFFER_REG+1),(c:_RUDD_PWM_REG+1)	;volatile
  3497                           opt subtitle "HI-TECH Software Omniscient Code Generator (Lite mode) build 49521"
  3498                           
  3499  000162                     i2l1101:
  3500                           opt subtitle "HI-TECH Software Omniscient Code Generator (Lite mode) build 49521"
  3501  000162  C009  F03B         	movff	(c:_ELEV_PWM_BUFFER_REG),(c:_ELEV_PWM_REG)	;volatile
  3502  000166  C00A  F03C         	movff	(c:_ELEV_PWM_BUFFER_REG+1),(c:_ELEV_PWM_REG+1)	;volatile
  3503                           opt subtitle "HI-TECH Software Omniscient Code Generator (Lite mode) build 49521"
  3504                           
  3505  00016A                     i2l1103:
  3506                           opt subtitle "HI-TECH Software Omniscient Code Generator (Lite mode) build 49521"
  3507  00016A  C00D  F03F         	movff	(c:_GEAR_PWM_BUFFER_REG),(c:_GEAR_PWM_REG)	;volatile
  3508  00016E  C00E  F040         	movff	(c:_GEAR_PWM_BUFFER_REG+1),(c:_GEAR_PWM_REG+1)	;volatile
  3509                           opt subtitle "HI-TECH Software Omniscient Code Generator (Lite mode) build 49521"
  3510                           
  3511  000172                     i2l1105:
  3512                           opt subtitle "HI-TECH Software Omniscient Code Generator (Lite mode) build 49521"
  3513  000172  C007  F039         	movff	(c:_AUX_PWM_BUFFER_REG),(c:_AUX_PWM_REG)	;volatile
  3514  000176  C008  F03A         	movff	(c:_AUX_PWM_BUFFER_REG+1),(c:_AUX_PWM_REG+1)	;volatile
  3515                           opt subtitle "HI-TECH Software Omniscient Code Generator (Lite mode) build 49521"
  3516                           
  3517  00017A  0E00               	movlw	high(0)
  3518  00017C  6E12               	movwf	((c:_count+1)),c	;volatile
  3519  00017E  0E00               	movlw	low(0)
  3520  000180  6E11               	movwf	((c:_count)),c	;volatile
  3521  000182  D000               	goto	i2l1107
  3522                           opt subtitle "HI-TECH Software Omniscient Code Generator (Lite mode) build 49521"
  3523                           
  3524  000184                     i2l175:
  3525                           opt subtitle "HI-TECH Software Omniscient Code Generator (Lite mode) build 49521"
  3526                           
  3527  000184                     i2l1107:
  3528                           opt subtitle "HI-TECH Software Omniscient Code Generator (Lite mode) build 49521"
  3529                           
  3530  000184  0E01               	movlw	01h
  3531  000186  2601               	addwf	((c:_kickAutoCount)),c	;volatile
  3532  000188  0E00               	movlw	0
  3533  00018A  2202               	addwfc	((c:_kickAutoCount+1)),c	;volatile
  3534  00018C  0E00               	movlw	0
  3535  00018E  2203               	addwfc	((c:_kickAutoCount+2)),c	;volatile
  3536  000190  0E00               	movlw	0
  3537  000192  2204               	addwfc	((c:_kickAutoCount+3)),c	;volatile
  3538  000194  D000               	goto	i2l176
  3539                           opt subtitle "HI-TECH Software Omniscient Code Generator (Lite mode) build 49521"
  3540                           
  3541  000196                     i2l168:
  3542                           opt subtitle "HI-TECH Software Omniscient Code Generator (Lite mode) build 49521"
  3543                           
  3544  000196                     i2l176:
  3545  000196  C02D  FFF5         	movff	??_InterruptHandlerHigh+13,tablat+0
  3546  00019A  C02C  FFF8         	movff	??_InterruptHandlerHigh+12,tblptru+0
  3547  00019E  C02B  FFF7         	movff	??_InterruptHandlerHigh+11,tblptrh+0
  3548  0001A2  C02A  FFF6         	movff	??_InterruptHandlerHigh+10,tblptrl+0
  3549  0001A6  C029  FFF4         	movff	??_InterruptHandlerHigh+9,prodh+0
  3550  0001AA  C028  FFF3         	movff	??_InterruptHandlerHigh+8,prodl+0
  3551  0001AE  C027  FFDA         	movff	??_InterruptHandlerHigh+7,fsr2h+0
  3552  0001B2  C026  FFD9         	movff	??_InterruptHandlerHigh+6,fsr2l+0
  3553  0001B6  C025  FFE2         	movff	??_InterruptHandlerHigh+5,fsr1h+0
  3554  0001BA  C024  FFE1         	movff	??_InterruptHandlerHigh+4,fsr1l+0
  3555  0001BE  C023  FFEA         	movff	??_InterruptHandlerHigh+3,fsr0h+0
  3556  0001C2  C022  FFE9         	movff	??_InterruptHandlerHigh+2,fsr0l+0
  3557  0001C6  C021  FFFB         	movff	??_InterruptHandlerHigh+1,pclat+1
  3558  0001CA  C020  FFFA         	movff	??_InterruptHandlerHigh+0,pclat+0
  3559  0001CE  0011               	retfie f
  3560                           opt subtitle "HI-TECH Software Omniscient Code Generator (Lite mode) build 49521"
  3561                           
  3562  0001D0                     	__end_of_InterruptHandlerHigh:
  3563                           opt subtitle "HI-TECH Software Omniscient Code Generator (Lite mode) build 49521"
  3564                           
  3565  0000                     __activetblptr	EQU	0
  3566                           opt subtitle "HI-TECH Software Omniscient Code Generator (Lite mode) build 49521"
  3567                           
  3568                           opt pagewidth 120
  3569                           
  3570                           	opt lm
  3571                           
  3572                           	processor	18F26K22
  3573  0000                     __Lparam	EQU	__Lrparam
  3574  0000                     __Hparam	EQU	__Hrparam


Data Sizes:
    Strings     0
    Constant    0
    Data        12
    BSS         31
    Persistent  12
    Stack       0

Auto Spaces:
    Space          Size  Autos    Used
    COMRAM           95     23      78
    BANK0           160      0       0
    BANK1           256      0       0
    BANK2           256      0       0
    BANK3           256      0       0
    BANK4           256      0       0
    BANK5           256      0       0
    BANK6           256      0       0
    BANK7           256      0       0
    BANK8           256      0       0
    BANK9           256      0       0
    BANK10          256      0       0
    BANK11          256      0       0
    BANK12          256      0       0
    BANK13          256      0       0
    BANK14          256      0       0
    BANK15           56      0       0

Pointer List with Targets:

    ?___awdiv	int  size(2) Largest target is 0


Critical Paths under _main in COMRAM

    _i2c_process->___awdiv

Critical Paths under _InterruptHandlerHigh in COMRAM

    None.

Critical Paths under _main in BANK0

    None.

Critical Paths under _InterruptHandlerHigh in BANK0

    None.

Critical Paths under _main in BANK1

    None.

Critical Paths under _InterruptHandlerHigh in BANK1

    None.

Critical Paths under _main in BANK2

    None.

Critical Paths under _InterruptHandlerHigh in BANK2

    None.

Critical Paths under _main in BANK3

    None.

Critical Paths under _InterruptHandlerHigh in BANK3

    None.

Critical Paths under _main in BANK4

    None.

Critical Paths under _InterruptHandlerHigh in BANK4

    None.

Critical Paths under _main in BANK5

    None.

Critical Paths under _InterruptHandlerHigh in BANK5

    None.

Critical Paths under _main in BANK6

    None.

Critical Paths under _InterruptHandlerHigh in BANK6

    None.

Critical Paths under _main in BANK7

    None.

Critical Paths under _InterruptHandlerHigh in BANK7

    None.

Critical Paths under _main in BANK8

    None.

Critical Paths under _InterruptHandlerHigh in BANK8

    None.

Critical Paths under _main in BANK9

    None.

Critical Paths under _InterruptHandlerHigh in BANK9

    None.

Critical Paths under _main in BANK10

    None.

Critical Paths under _InterruptHandlerHigh in BANK10

    None.

Critical Paths under _main in BANK11

    None.

Critical Paths under _InterruptHandlerHigh in BANK11

    None.

Critical Paths under _main in BANK12

    None.

Critical Paths under _InterruptHandlerHigh in BANK12

    None.

Critical Paths under _main in BANK13

    None.

Critical Paths under _InterruptHandlerHigh in BANK13

    None.

Critical Paths under _main in BANK14

    None.

Critical Paths under _InterruptHandlerHigh in BANK14

    None.

Critical Paths under _main in BANK15

    None.

Critical Paths under _InterruptHandlerHigh in BANK15

    None.

Call Graph Tables:

 ---------------------------------------------------------------------------------
 (Depth) Function   	        Calls       Base Space   Used Autos Params    Refs
 ---------------------------------------------------------------------------------
 (0) _main                                                 0     0      0     195
                        _SETUP_clock
                           _SETUP_io
                          _SETUP_i2c
                          _SETUP_PWM
                        _i2c_process
 ---------------------------------------------------------------------------------
 (1) _SETUP_clock                                          0     0      0       0
 ---------------------------------------------------------------------------------
 (1) _SETUP_io                                             0     0      0       0
 ---------------------------------------------------------------------------------
 (1) _SETUP_i2c                                            0     0      0       0
 ---------------------------------------------------------------------------------
 (1) _SETUP_PWM                                            0     0      0       0
 ---------------------------------------------------------------------------------
 (1) _i2c_process                                          0     0      0     195
                            ___awdiv
 ---------------------------------------------------------------------------------
 (2) ___awdiv                                              9     5      4     195
                                             14 COMRAM     9     5      4
 ---------------------------------------------------------------------------------
 Estimated maximum stack depth 2
 ---------------------------------------------------------------------------------
 (Depth) Function   	        Calls       Base Space   Used Autos Params    Refs
 ---------------------------------------------------------------------------------
 (3) _InterruptHandlerHigh                                14    14      0       0
                                              0 COMRAM    14    14      0
 ---------------------------------------------------------------------------------
 Estimated maximum stack depth 3
 ---------------------------------------------------------------------------------

 Call Graph Graphs:

 _main (ROOT)
   _SETUP_clock
   _SETUP_io
   _SETUP_i2c
   _SETUP_PWM
   _i2c_process
     ___awdiv

 _InterruptHandlerHigh (ROOT)

 Address spaces:
Name               Size   Autos  Total    Cost      Usage
BIGRAM             F37      0       0      37        0.0%
EEDATA             400      0       0       0        0.0%
BITBANK14          100      0       0      33        0.0%
BANK14             100      0       0      34        0.0%
BITBANK13          100      0       0      31        0.0%
BANK13             100      0       0      32        0.0%
BITBANK12          100      0       0      29        0.0%
BANK12             100      0       0      30        0.0%
BITBANK11          100      0       0      27        0.0%
BANK11             100      0       0      28        0.0%
BITBANK10          100      0       0      25        0.0%
BANK10             100      0       0      26        0.0%
BITBANK9           100      0       0      23        0.0%
BANK9              100      0       0      24        0.0%
BITBANK8           100      0       0      21        0.0%
BANK8              100      0       0      22        0.0%
BITBANK7           100      0       0      19        0.0%
BANK7              100      0       0      20        0.0%
BITBANK6           100      0       0      17        0.0%
BANK6              100      0       0      18        0.0%
BITBANK5           100      0       0      15        0.0%
BANK5              100      0       0      16        0.0%
BITBANK4           100      0       0      13        0.0%
BANK4              100      0       0      14        0.0%
BITBANK3           100      0       0      10        0.0%
BANK3              100      0       0      11        0.0%
BITBANK2           100      0       0       8        0.0%
BANK2              100      0       0       9        0.0%
BITBANK1           100      0       0       6        0.0%
BANK1              100      0       0       7        0.0%
BITBANK0            A0      0       0       4        0.0%
BANK0               A0      0       0       5        0.0%
BITCOMRAM           5F      0       0       0        0.0%
COMRAM              5F     17      4E       1       82.1%
BITBANK15           38      0       0      35        0.0%
BANK15              38      0       0      36        0.0%
BITSFR_1             0      0       0      40        0.0%
SFR_1                0      0       0      40        0.0%
BITSFR               0      0       0      40        0.0%
SFR                  0      0       0      40        0.0%
STACK                0      0       2       2        0.0%
NULL                 0      0       0       0        0.0%
ABS                  0      0      4E      12        0.0%
DATA                 0      0      50       3        0.0%
CODE                 0      0       0       0        0.0%


Microchip Technology PIC18 Macro Assembler V1.12 build 49521 
Symbol Table                                                                                   Tue Oct 13 11:27:12 2015

                           l63 05CE                             l66 05A6                             l75 0556  
                           l69 05C0                             u10 0500                             u11 04FE  
                           u20 050A                             u21 0508                             u30 01DC  
                           u31 01DA                             u40 01E6                             u41 01E4  
                           u50 01EE                             u51 01EC                             u60 0202  
                           u61 0200                             u70 0212                             u71 0210  
                           u80 021A                             u81 0218                             u90 0224  
                           u91 0222                   ___awdiv@sign 0034                            l200 02CC  
                          l201 02DA                            l202 02E4                            l203 040C  
                          l204 040C                            l160 04E4                            l161 050E  
                          l330 047A                            l162 0510                            l331 049C  
                          l163 0514                            l332 04A8                            l324 0430  
                          l164 0516                            l333 04BE                            l325 0446  
                          l165 0516                            l334 04C8                            l326 04AA  
                          l190 0320                            l327 046E                            l183 0324  
                          l191 031E                            l328 0464                            l192 02E8  
                          l184 020A                            l329 0478                            l193 0274  
                          l185 0208                            l194 031C                            l186 0320  
                          l195 0286                            l187 025E                            l196 0294  
                          l188 0250                            l197 02A2                            l189 0254  
                          l198 02B0                            l199 02BE                            l911 05CC  
                          l921 059C                            l913 058A                            l931 05A8  
                          l923 059E                            l915 0592                            l907 05C2  
                          l941 05BC                            l933 05AC                            l925 05A0  
                          l917 0598                            l909 05C6                            l943 05BE  
                          l935 05B0                            l927 05A2                            l919 059A  
                          l951 04CA                            l937 05B2                            l929 05A4  
                          l961 04DE                            l953 04CE                            l947 051A  
                          l939 05BA                            l971 050A                            l963 04E0  
                          l955 04D2                            l981 01F2                            l973 01D4  
                          l949 051E                            l965 04E4                            l957 04DA  
                          l991 0224                            l983 01F6                            l975 01DC  
                          l967 04E8                            l959 04DC                            l993 0228  
                          l985 0202                            l977 01E6                            l969 0500  
                          l995 0236                            l987 0212                            l979 01EE  
                          l997 0250                            l989 021A                            l999 0266  
                          u100 0236                            u101 0234                            u110 0266  
                          u111 0264                            u120 0270                            u121 026E  
                          u130 032E                            u131 032C                            u300 045A  
                          u301 0458                            u310 0476                            u311 0474  
                          u320 0490                            u321 048E                            u330 04B4  
                          u331 04B2                            u280 041E                            u281 041C  
                          u290 0438                            u291 0436                            wreg 000FE8  
                         l1001 0272                           l1011 028A                           l1003 0274  
                         l1021 02AA                           l1013 028E                           l1005 0278  
                         l1111 0416                           l1031 02D0                           l1023 02B4  
                         l1015 0298                           l1007 027C                           l1121 0440  
                         l1113 041E                           l1033 02D4                           l1025 02B8  
                         l1017 029C                           l1009 0280                           l1041 0324  
                         l1131 046E                           l1123 0446                           l1115 0426  
                         l1043 032E                           l1035 02DE                           l1027 02C2  
                         l1019 02A6                           l1141 049C                           l1133 047A  
                         l1125 044E                           l1117 0430                           l1109 040E  
                         l1045 0406                           l1037 02E6                           l1029 02C6  
                         l1151 04C8                           l1143 04A2                           l1135 0480  
                         l1127 045A                           l1119 0438                           l1039 02E8  
                         l1137 0490                           l1129 0464                           l1145 04AA  
                         l1147 04B4                           l1139 0498                           l1149 04BE  
                __CFG_DEBUG$ON 000000                           _main 04CA                           fsr0h 000FEA  
                         fsr1h 000FE2                           fsr0l 000FE9                           fsr2h 000FDA  
                         fsr1l 000FE1                           indf2 000FDF                           fsr2l 000FD9  
                __CFG_BORV$250 000000                           pclat 000FFA                           prodh 000FF4  
                         prodl 000FF3                           start 01D0                  __CFG_IESO$OFF 000000  
                ??_i2c_process 0037               _percentActuation 0043                          ?_main 0020  
              __end_of___awdiv 04CA                          _AIL_n 0049                          _T0CON 000FD5  
              ___awdiv@divisor 0030                          _ESC_n 004C                          i2l170 00C0  
                        i2l171 00D8                          i2l172 00F0                  __CFG_WDTEN$ON 000000  
                        i2l173 0108                          i2l174 0120                          i2l175 0184  
                        i2l168 0196                          i2l176 0196                          i2l169 00A8  
              ___awdiv@counter 0033                          _AUX_n 004A                          _TMR0L 000FD6  
                        _TRISC 000F94             __size_of_SETUP_PWM 003E                 __CFG_FCMEN$OFF 000000  
           __size_of_SETUP_i2c 001A               __end_of_SETUP_io 05A8                          _count 0011  
           __CFG_MCLRE$EXTMCLR 000000              i2c_process@buffer 0017                          tablat 000FF5  
                        status 000FD8                __initialization 0558                   __end_of_main 051A  
                       ??_main 0037            __end_of_i2c_process 040E                  __activetblptr 000000  
               __CFG_PLLCFG$ON 000000             _AUX_PWM_BUFFER_REG 0007               ___awdiv@dividend 002E  
                       _ANSELB 000F39                         _ANSELC 000F3A                         _GEAR_n 004D  
                       _ELEV_n 004B                         i2l1101 0162                         i2l1103 016A  
                       i2l1105 0172                         i2l1107 0184                         i2l1051 004A  
                       i2l1061 0078                         i2l1053 0050                         i2l1071 00A8  
                       i2l1063 0082                         i2l1055 005A                         i2l1047 0040  
                       i2l1081 00EA                         i2l1073 00BA                         i2l1065 008C  
                       i2l1057 0064                         i2l1049 0048                         i2l1091 0120  
                       i2l1083 00F0                         i2l1075 00C0                         i2l1067 0090  
                       i2l1059 006E                         i2l1093 0132                         i2l1085 0102  
                       i2l1077 00D2                         i2l1069 00A2                         i2l1095 014A  
                       i2l1087 0108                         i2l1079 00D8                         i2l1097 0152  
                       i2l1089 011A                         i2l1099 015A                 __CFG_WDTPS$128 000000  
                       _RUDD_n 004E                   ?_SETUP_clock 0020                 __CFG_PWRTEN$ON 000000  
            __end_of_SETUP_PWM 0558              __end_of_SETUP_i2c 05C2                      ??___awdiv 0032  
               __CFG_STVREN$ON 000000                         clear_0 055E               ___awdiv@quotient 0035  
                 __pdataCOMRAM 0043                         tblptrh 000FF7                         tblptrl 000FF6  
                       tblptru 000FF8                     __accesstop 0060        __end_of__initialization 0584  
              __CFG_PBADEN$OFF 000000          _RECEIVING_FROM_MASTER 0014            _GEAR_PWM_BUFFER_REG 000D  
          _ELEV_PWM_BUFFER_REG 0009            _RUDD_PWM_BUFFER_REG 000F                 __pcstackCOMRAM 0020  
                  _i2c_process 01D4                      ?_SETUP_io 0020                   _GEAR_PWM_REG 003F  
           _ESC_PWM_BUFFER_REG 000B                   _data_updated 0016  __size_of_InterruptHandlerHigh 01C8  
                   _dataBuffer 0018                     __pnvCOMRAM 0037             __CFG_CCP2MX$PORTB3 000000  
                   ??_SETUP_io 002E             __CFG_CCP3MX$PORTB5 000000                        _I2C_FSM 0013  
                      i2u20_45 008A                        i2u20_46 008C                        i2u21_40 00A2  
                      i2u21_41 00A0                        i2u21_45 009A                        i2u22_40 00BA  
                      i2u14_40 0048                        i2u22_41 00B8                        i2u14_41 0046  
                      i2u22_45 00B2                        i2u23_40 00D2                        i2u23_41 00D0  
                      i2u23_45 00CA                        i2u15_45 0058                        i2u15_46 005A  
                      i2u24_40 00EA                        i2u24_41 00E8                        i2u24_45 00E2  
                      i2u16_45 0062                        i2u16_46 0064                        i2u25_40 0102  
                      i2u25_41 0100                        i2u25_45 00FA                        i2u17_45 006C  
                      i2u17_46 006E                        i2u26_40 011A                        i2u26_41 0118  
                      i2u26_45 0112                        i2u18_45 0076                        i2u18_46 0078  
                      i2u27_40 0132                        i2u27_41 0130                        i2u19_45 0080  
                      i2u19_46 0082                        _SSP1ADD 000FC8                        _SSP1BUF 000FC9  
                 _ELEV_PWM_REG 003B                        __Hparam 0000                        __Lparam 0000  
         __size_of_SETUP_clock 000E                        ___awdiv 040E                        __pcinit 0558  
                      __ramtop 1000                        __ptext0 04CA                        __ptext1 05C2  
                      __ptext2 058A                        __ptext3 05A8                        __ptext4 051A  
                      __ptext5 01D4                        __ptext6 040E                      _T0CONbits 000FD5  
         end_of_initialization 0584                        postdec1 000FE5                        postinc0 000FEE  
                    _SETUP_PWM 051A                      _SETUP_i2c 05A8                      _TRISAbits 000F92  
                    _TRISBbits 000F93                      _TRISCbits 000F94                   ?_i2c_process 0020  
                   ?_SETUP_PWM 0020                     ?_SETUP_i2c 0020                  __pidataCOMRAM 05D0  
            __size_of_SETUP_io 001E            start_initialization 0558   __end_of_InterruptHandlerHigh 01D0  
                  __pbssCOMRAM 0001                    _AIL_PWM_REG 0037             _AIL_PWM_BUFFER_REG 0005  
                    __pintcode 0008                       ?___awdiv 002E                    ??_SETUP_PWM 002E  
                  ??_SETUP_i2c 002E               __CFG_PRICLKEN$ON 000000                       _LATAbits 000F89  
                     _LATBbits 000F8A                       _LATCbits 000F8B                       _PIE1bits 000F9D  
                ??_SETUP_clock 002E                       _PIR1bits 000F9E                       _RCONbits 000FD0  
                     _SETUP_io 058A                    _ESC_PWM_REG 003D           __size_of_i2c_process 023A  
         _InterruptHandlerHigh 0008                    _INTCON2bits 000FF1                      copy_data0 0578  
                  _AUX_PWM_REG 0039                       __Hrparam 0000                       __Lrparam 0000  
           __CFG_BOREN$SBORDIS 000000               __size_of___awdiv 00BC            __end_of_SETUP_clock 05D0  
        ?_InterruptHandlerHigh 0020                       _checksum 0015                   _SSP1CON1bits 000FC6  
                 _SSP1CON2bits 000FC5                  __size_of_main 0050                   _SSP1STATbits 000FC7  
                 _RUDD_PWM_REG 0041                    _OSCTUNEbits 000F9B                     _INTCONbits 000FF2  
                     intlevel2 0000                    _SETUP_clock 05C2                     _OSCCONbits 000FD3  
       ??_InterruptHandlerHigh 0020              __CFG_FOSC$INTIO67 000000                  _kickAutoCount 0001  
